
dlc:     file format elf64-x86-64


Disassembly of section .init:

0000000000400df8 <_init>:
  400df8:	48 83 ec 08          	sub    $0x8,%rsp
  400dfc:	e8 c7 0d 00 00       	callq  401bc8 <call_gmon_start>
  400e01:	48 83 c4 08          	add    $0x8,%rsp
  400e05:	c3                   	retq   

Disassembly of section .plt:

0000000000400e10 <.plt>:
  400e10:	ff 35 da 11 24 00    	pushq  0x2411da(%rip)        # 641ff0 <_GLOBAL_OFFSET_TABLE_+0x8>
  400e16:	ff 25 dc 11 24 00    	jmpq   *0x2411dc(%rip)        # 641ff8 <_GLOBAL_OFFSET_TABLE_+0x10>
  400e1c:	0f 1f 40 00          	nopl   0x0(%rax)

0000000000400e20 <__ctype_toupper_loc@plt>:
  400e20:	ff 25 da 11 24 00    	jmpq   *0x2411da(%rip)        # 642000 <__ctype_toupper_loc@GLIBC_2.3>
  400e26:	68 00 00 00 00       	pushq  $0x0
  400e2b:	e9 e0 ff ff ff       	jmpq   400e10 <.plt>

0000000000400e30 <free@plt>:
  400e30:	ff 25 d2 11 24 00    	jmpq   *0x2411d2(%rip)        # 642008 <free@GLIBC_2.2.5>
  400e36:	68 01 00 00 00       	pushq  $0x1
  400e3b:	e9 d0 ff ff ff       	jmpq   400e10 <.plt>

0000000000400e40 <putchar@plt>:
  400e40:	ff 25 ca 11 24 00    	jmpq   *0x2411ca(%rip)        # 642010 <putchar@GLIBC_2.2.5>
  400e46:	68 02 00 00 00       	pushq  $0x2
  400e4b:	e9 c0 ff ff ff       	jmpq   400e10 <.plt>

0000000000400e50 <__vfprintf_chk@plt>:
  400e50:	ff 25 c2 11 24 00    	jmpq   *0x2411c2(%rip)        # 642018 <__vfprintf_chk@GLIBC_2.3.4>
  400e56:	68 03 00 00 00       	pushq  $0x3
  400e5b:	e9 b0 ff ff ff       	jmpq   400e10 <.plt>

0000000000400e60 <abort@plt>:
  400e60:	ff 25 ba 11 24 00    	jmpq   *0x2411ba(%rip)        # 642020 <abort@GLIBC_2.2.5>
  400e66:	68 04 00 00 00       	pushq  $0x4
  400e6b:	e9 a0 ff ff ff       	jmpq   400e10 <.plt>

0000000000400e70 <strncpy@plt>:
  400e70:	ff 25 b2 11 24 00    	jmpq   *0x2411b2(%rip)        # 642028 <strncpy@GLIBC_2.2.5>
  400e76:	68 05 00 00 00       	pushq  $0x5
  400e7b:	e9 90 ff ff ff       	jmpq   400e10 <.plt>

0000000000400e80 <strcpy@plt>:
  400e80:	ff 25 aa 11 24 00    	jmpq   *0x2411aa(%rip)        # 642030 <strcpy@GLIBC_2.2.5>
  400e86:	68 06 00 00 00       	pushq  $0x6
  400e8b:	e9 80 ff ff ff       	jmpq   400e10 <.plt>

0000000000400e90 <puts@plt>:
  400e90:	ff 25 a2 11 24 00    	jmpq   *0x2411a2(%rip)        # 642038 <puts@GLIBC_2.2.5>
  400e96:	68 07 00 00 00       	pushq  $0x7
  400e9b:	e9 70 ff ff ff       	jmpq   400e10 <.plt>

0000000000400ea0 <isatty@plt>:
  400ea0:	ff 25 9a 11 24 00    	jmpq   *0x24119a(%rip)        # 642040 <isatty@GLIBC_2.2.5>
  400ea6:	68 08 00 00 00       	pushq  $0x8
  400eab:	e9 60 ff ff ff       	jmpq   400e10 <.plt>

0000000000400eb0 <strtod@plt>:
  400eb0:	ff 25 92 11 24 00    	jmpq   *0x241192(%rip)        # 642048 <strtod@GLIBC_2.2.5>
  400eb6:	68 09 00 00 00       	pushq  $0x9
  400ebb:	e9 50 ff ff ff       	jmpq   400e10 <.plt>

0000000000400ec0 <fclose@plt>:
  400ec0:	ff 25 8a 11 24 00    	jmpq   *0x24118a(%rip)        # 642050 <fclose@GLIBC_2.2.5>
  400ec6:	68 0a 00 00 00       	pushq  $0xa
  400ecb:	e9 40 ff ff ff       	jmpq   400e10 <.plt>

0000000000400ed0 <stpcpy@plt>:
  400ed0:	ff 25 82 11 24 00    	jmpq   *0x241182(%rip)        # 642058 <stpcpy@GLIBC_2.2.5>
  400ed6:	68 0b 00 00 00       	pushq  $0xb
  400edb:	e9 30 ff ff ff       	jmpq   400e10 <.plt>

0000000000400ee0 <strlen@plt>:
  400ee0:	ff 25 7a 11 24 00    	jmpq   *0x24117a(%rip)        # 642060 <strlen@GLIBC_2.2.5>
  400ee6:	68 0c 00 00 00       	pushq  $0xc
  400eeb:	e9 20 ff ff ff       	jmpq   400e10 <.plt>

0000000000400ef0 <__stack_chk_fail@plt>:
  400ef0:	ff 25 72 11 24 00    	jmpq   *0x241172(%rip)        # 642068 <__stack_chk_fail@GLIBC_2.4>
  400ef6:	68 0d 00 00 00       	pushq  $0xd
  400efb:	e9 10 ff ff ff       	jmpq   400e10 <.plt>

0000000000400f00 <strchr@plt>:
  400f00:	ff 25 6a 11 24 00    	jmpq   *0x24116a(%rip)        # 642070 <strchr@GLIBC_2.2.5>
  400f06:	68 0e 00 00 00       	pushq  $0xe
  400f0b:	e9 00 ff ff ff       	jmpq   400e10 <.plt>

0000000000400f10 <_IO_putc@plt>:
  400f10:	ff 25 62 11 24 00    	jmpq   *0x241162(%rip)        # 642078 <_IO_putc@GLIBC_2.2.5>
  400f16:	68 0f 00 00 00       	pushq  $0xf
  400f1b:	e9 f0 fe ff ff       	jmpq   400e10 <.plt>

0000000000400f20 <pclose@plt>:
  400f20:	ff 25 5a 11 24 00    	jmpq   *0x24115a(%rip)        # 642080 <pclose@GLIBC_2.2.5>
  400f26:	68 10 00 00 00       	pushq  $0x10
  400f2b:	e9 e0 fe ff ff       	jmpq   400e10 <.plt>

0000000000400f30 <fputs@plt>:
  400f30:	ff 25 52 11 24 00    	jmpq   *0x241152(%rip)        # 642088 <fputs@GLIBC_2.2.5>
  400f36:	68 11 00 00 00       	pushq  $0x11
  400f3b:	e9 d0 fe ff ff       	jmpq   400e10 <.plt>

0000000000400f40 <fputc@plt>:
  400f40:	ff 25 4a 11 24 00    	jmpq   *0x24114a(%rip)        # 642090 <fputc@GLIBC_2.2.5>
  400f46:	68 12 00 00 00       	pushq  $0x12
  400f4b:	e9 c0 fe ff ff       	jmpq   400e10 <.plt>

0000000000400f50 <__libc_start_main@plt>:
  400f50:	ff 25 42 11 24 00    	jmpq   *0x241142(%rip)        # 642098 <__libc_start_main@GLIBC_2.2.5>
  400f56:	68 13 00 00 00       	pushq  $0x13
  400f5b:	e9 b0 fe ff ff       	jmpq   400e10 <.plt>

0000000000400f60 <fgets@plt>:
  400f60:	ff 25 3a 11 24 00    	jmpq   *0x24113a(%rip)        # 6420a0 <fgets@GLIBC_2.2.5>
  400f66:	68 14 00 00 00       	pushq  $0x14
  400f6b:	e9 a0 fe ff ff       	jmpq   400e10 <.plt>

0000000000400f70 <calloc@plt>:
  400f70:	ff 25 32 11 24 00    	jmpq   *0x241132(%rip)        # 6420a8 <calloc@GLIBC_2.2.5>
  400f76:	68 15 00 00 00       	pushq  $0x15
  400f7b:	e9 90 fe ff ff       	jmpq   400e10 <.plt>

0000000000400f80 <strcmp@plt>:
  400f80:	ff 25 2a 11 24 00    	jmpq   *0x24112a(%rip)        # 6420b0 <strcmp@GLIBC_2.2.5>
  400f86:	68 16 00 00 00       	pushq  $0x16
  400f8b:	e9 80 fe ff ff       	jmpq   400e10 <.plt>

0000000000400f90 <strtol@plt>:
  400f90:	ff 25 22 11 24 00    	jmpq   *0x241122(%rip)        # 6420b8 <strtol@GLIBC_2.2.5>
  400f96:	68 17 00 00 00       	pushq  $0x17
  400f9b:	e9 70 fe ff ff       	jmpq   400e10 <.plt>

0000000000400fa0 <memcpy@plt>:
  400fa0:	ff 25 1a 11 24 00    	jmpq   *0x24111a(%rip)        # 6420c0 <memcpy@GLIBC_2.14>
  400fa6:	68 18 00 00 00       	pushq  $0x18
  400fab:	e9 60 fe ff ff       	jmpq   400e10 <.plt>

0000000000400fb0 <fileno@plt>:
  400fb0:	ff 25 12 11 24 00    	jmpq   *0x241112(%rip)        # 6420c8 <fileno@GLIBC_2.2.5>
  400fb6:	68 19 00 00 00       	pushq  $0x19
  400fbb:	e9 50 fe ff ff       	jmpq   400e10 <.plt>

0000000000400fc0 <malloc@plt>:
  400fc0:	ff 25 0a 11 24 00    	jmpq   *0x24110a(%rip)        # 6420d0 <malloc@GLIBC_2.2.5>
  400fc6:	68 1a 00 00 00       	pushq  $0x1a
  400fcb:	e9 40 fe ff ff       	jmpq   400e10 <.plt>

0000000000400fd0 <fflush@plt>:
  400fd0:	ff 25 02 11 24 00    	jmpq   *0x241102(%rip)        # 6420d8 <fflush@GLIBC_2.2.5>
  400fd6:	68 1b 00 00 00       	pushq  $0x1b
  400fdb:	e9 30 fe ff ff       	jmpq   400e10 <.plt>

0000000000400fe0 <__isoc99_sscanf@plt>:
  400fe0:	ff 25 fa 10 24 00    	jmpq   *0x2410fa(%rip)        # 6420e0 <__isoc99_sscanf@GLIBC_2.7>
  400fe6:	68 1c 00 00 00       	pushq  $0x1c
  400feb:	e9 20 fe ff ff       	jmpq   400e10 <.plt>

0000000000400ff0 <realloc@plt>:
  400ff0:	ff 25 f2 10 24 00    	jmpq   *0x2410f2(%rip)        # 6420e8 <realloc@GLIBC_2.2.5>
  400ff6:	68 1d 00 00 00       	pushq  $0x1d
  400ffb:	e9 10 fe ff ff       	jmpq   400e10 <.plt>

0000000000401000 <__strcpy_chk@plt>:
  401000:	ff 25 ea 10 24 00    	jmpq   *0x2410ea(%rip)        # 6420f0 <__strcpy_chk@GLIBC_2.3.4>
  401006:	68 1e 00 00 00       	pushq  $0x1e
  40100b:	e9 00 fe ff ff       	jmpq   400e10 <.plt>

0000000000401010 <__printf_chk@plt>:
  401010:	ff 25 e2 10 24 00    	jmpq   *0x2410e2(%rip)        # 6420f8 <__printf_chk@GLIBC_2.3.4>
  401016:	68 1f 00 00 00       	pushq  $0x1f
  40101b:	e9 f0 fd ff ff       	jmpq   400e10 <.plt>

0000000000401020 <popen@plt>:
  401020:	ff 25 da 10 24 00    	jmpq   *0x2410da(%rip)        # 642100 <popen@GLIBC_2.2.5>
  401026:	68 20 00 00 00       	pushq  $0x20
  40102b:	e9 e0 fd ff ff       	jmpq   400e10 <.plt>

0000000000401030 <fopen@plt>:
  401030:	ff 25 d2 10 24 00    	jmpq   *0x2410d2(%rip)        # 642108 <fopen@GLIBC_2.2.5>
  401036:	68 21 00 00 00       	pushq  $0x21
  40103b:	e9 d0 fd ff ff       	jmpq   400e10 <.plt>

0000000000401040 <strtoul@plt>:
  401040:	ff 25 ca 10 24 00    	jmpq   *0x2410ca(%rip)        # 642110 <strtoul@GLIBC_2.2.5>
  401046:	68 22 00 00 00       	pushq  $0x22
  40104b:	e9 c0 fd ff ff       	jmpq   400e10 <.plt>

0000000000401050 <strcat@plt>:
  401050:	ff 25 c2 10 24 00    	jmpq   *0x2410c2(%rip)        # 642118 <strcat@GLIBC_2.2.5>
  401056:	68 23 00 00 00       	pushq  $0x23
  40105b:	e9 b0 fd ff ff       	jmpq   400e10 <.plt>

0000000000401060 <exit@plt>:
  401060:	ff 25 ba 10 24 00    	jmpq   *0x2410ba(%rip)        # 642120 <exit@GLIBC_2.2.5>
  401066:	68 24 00 00 00       	pushq  $0x24
  40106b:	e9 a0 fd ff ff       	jmpq   400e10 <.plt>

0000000000401070 <fwrite@plt>:
  401070:	ff 25 b2 10 24 00    	jmpq   *0x2410b2(%rip)        # 642128 <fwrite@GLIBC_2.2.5>
  401076:	68 25 00 00 00       	pushq  $0x25
  40107b:	e9 90 fd ff ff       	jmpq   400e10 <.plt>

0000000000401080 <__fprintf_chk@plt>:
  401080:	ff 25 aa 10 24 00    	jmpq   *0x2410aa(%rip)        # 642130 <__fprintf_chk@GLIBC_2.3.4>
  401086:	68 26 00 00 00       	pushq  $0x26
  40108b:	e9 80 fd ff ff       	jmpq   400e10 <.plt>

0000000000401090 <__ctype_b_loc@plt>:
  401090:	ff 25 a2 10 24 00    	jmpq   *0x2410a2(%rip)        # 642138 <__ctype_b_loc@GLIBC_2.3>
  401096:	68 27 00 00 00       	pushq  $0x27
  40109b:	e9 70 fd ff ff       	jmpq   400e10 <.plt>

00000000004010a0 <__sprintf_chk@plt>:
  4010a0:	ff 25 9a 10 24 00    	jmpq   *0x24109a(%rip)        # 642140 <__sprintf_chk@GLIBC_2.3.4>
  4010a6:	68 28 00 00 00       	pushq  $0x28
  4010ab:	e9 60 fd ff ff       	jmpq   400e10 <.plt>

Disassembly of section .text:

00000000004010b0 <yy_get_previous_state>:
  4010b0:	48 8b 05 31 a6 26 00 	mov    0x26a631(%rip),%rax        # 66b6e8 <yy_current_buffer>
  4010b7:	53                   	push   %rbx
  4010b8:	4c 8b 0d a1 c1 26 00 	mov    0x26c1a1(%rip),%r9        # 66d260 <yytext>
  4010bf:	48 8b 1d 12 a6 26 00 	mov    0x26a612(%rip),%rbx        # 66b6d8 <yy_c_buf_p>
  4010c6:	44 8b 1d fb a5 26 00 	mov    0x26a5fb(%rip),%r11d        # 66b6c8 <yy_last_accepting_state>
  4010cd:	4c 8b 15 ec a5 26 00 	mov    0x26a5ec(%rip),%r10        # 66b6c0 <yy_last_accepting_cpos>
  4010d4:	8b 40 28             	mov    0x28(%rax),%eax
  4010d7:	03 05 f3 a5 26 00    	add    0x26a5f3(%rip),%eax        # 66b6d0 <yy_start>
  4010dd:	49 39 d9             	cmp    %rbx,%r9
  4010e0:	73 6d                	jae    40114f <yy_get_previous_state+0x9f>
  4010e2:	41 0f b6 11          	movzbl (%r9),%edx
  4010e6:	41 b0 01             	mov    $0x1,%r8b
  4010e9:	84 d2                	test   %dl,%dl
  4010eb:	74 08                	je     4010f5 <yy_get_previous_state+0x45>
  4010ed:	44 8a 04 95 a0 ca 42 	mov    0x42caa0(,%rdx,4),%r8b
  4010f4:	00 
  4010f5:	48 63 d0             	movslq %eax,%rdx
  4010f8:	66 83 bc 12 a0 ce 42 	cmpw   $0x0,0x42cea0(%rdx,%rdx,1)
  4010ff:	00 00 
  401101:	4d 0f 45 d1          	cmovne %r9,%r10
  401105:	44 0f 45 d8          	cmovne %eax,%r11d
  401109:	48 63 d0             	movslq %eax,%rdx
  40110c:	41 0f b6 c8          	movzbl %r8b,%ecx
  401110:	0f bf b4 12 c0 c3 42 	movswl 0x42c3c0(%rdx,%rdx,1),%esi
  401117:	00 
  401118:	01 ce                	add    %ecx,%esi
  40111a:	48 63 fe             	movslq %esi,%rdi
  40111d:	0f bf bc 3f c0 76 42 	movswl 0x4276c0(%rdi,%rdi,1),%edi
  401124:	00 
  401125:	39 c7                	cmp    %eax,%edi
  401127:	74 19                	je     401142 <yy_get_previous_state+0x92>
  401129:	0f bf 84 12 00 be 42 	movswl 0x42be00(%rdx,%rdx,1),%eax
  401130:	00 
  401131:	3d 71 02 00 00       	cmp    $0x271,%eax
  401136:	7e d1                	jle    401109 <yy_get_previous_state+0x59>
  401138:	44 8a 04 8d 80 c9 42 	mov    0x42c980(,%rcx,4),%r8b
  40113f:	00 
  401140:	eb c7                	jmp    401109 <yy_get_previous_state+0x59>
  401142:	0f bf 84 36 60 9a 42 	movswl 0x429a60(%rsi,%rsi,1),%eax
  401149:	00 
  40114a:	49 ff c1             	inc    %r9
  40114d:	eb 8e                	jmp    4010dd <yy_get_previous_state+0x2d>
  40114f:	44 89 1d 72 a5 26 00 	mov    %r11d,0x26a572(%rip)        # 66b6c8 <yy_last_accepting_state>
  401156:	4c 89 15 63 a5 26 00 	mov    %r10,0x26a563(%rip)        # 66b6c0 <yy_last_accepting_cpos>
  40115d:	5b                   	pop    %rbx
  40115e:	c3                   	retq   

000000000040115f <print_token.part.0>:
  40115f:	41 89 f8             	mov    %edi,%r8d
extern int __vprintf_chk (int __flag, const char *__restrict __format,
			  __gnuc_va_list __ap);

# ifdef __va_arg_pack
__fortify_function int
fprintf (FILE *__restrict __stream, const char *__restrict __fmt, ...)
  401162:	48 8b 0d f7 c0 26 00 	mov    0x26c0f7(%rip),%rcx        # 66d260 <yytext>
  401169:	48 8b 3d 00 a1 26 00 	mov    0x26a100(%rip),%rdi        # 66b270 <stderr@@GLIBC_2.2.5>
  401170:	ba b4 6b 42 00       	mov    $0x426bb4,%edx
  401175:	be 01 00 00 00       	mov    $0x1,%esi
  40117a:	31 c0                	xor    %eax,%eax
  40117c:	e9 ff fe ff ff       	jmpq   401080 <__fprintf_chk@plt>

0000000000401181 <WarnAboutPrecedence>:
  401181:	83 3e 02             	cmpl   $0x2,(%rsi)
  401184:	75 73                	jne    4011f9 <WarnAboutPrecedence+0x78>
  401186:	66 83 7e 12 00       	cmpw   $0x0,0x12(%rsi)
  40118b:	75 6c                	jne    4011f9 <WarnAboutPrecedence+0x78>
  40118d:	81 ff 3d 01 00 00    	cmp    $0x13d,%edi
  401193:	8b 46 40             	mov    0x40(%rsi),%eax
  401196:	75 21                	jne    4011b9 <WarnAboutPrecedence+0x38>
  401198:	3d 3c 01 00 00       	cmp    $0x13c,%eax
  40119d:	75 1a                	jne    4011b9 <WarnAboutPrecedence+0x38>
  40119f:	48 8b 46 04          	mov    0x4(%rsi),%rax
  4011a3:	8b 56 0c             	mov    0xc(%rsi),%edx
  4011a6:	b9 88 d3 42 00       	mov    $0x42d388,%ecx
  4011ab:	66 bf 04 00          	mov    $0x4,%di
  4011af:	48 89 c6             	mov    %rax,%rsi
  4011b2:	31 c0                	xor    %eax,%eax
  4011b4:	e9 37 2b 02 00       	jmpq   423cf0 <WarningCoord>
  4011b9:	83 ff 5e             	cmp    $0x5e,%edi
  4011bc:	74 05                	je     4011c3 <WarnAboutPrecedence+0x42>
  4011be:	83 ff 7c             	cmp    $0x7c,%edi
  4011c1:	75 36                	jne    4011f9 <WarnAboutPrecedence+0x78>
  4011c3:	83 f8 2b             	cmp    $0x2b,%eax
  4011c6:	74 0f                	je     4011d7 <WarnAboutPrecedence+0x56>
  4011c8:	83 f8 2d             	cmp    $0x2d,%eax
  4011cb:	74 0a                	je     4011d7 <WarnAboutPrecedence+0x56>
  4011cd:	83 f8 26             	cmp    $0x26,%eax
  4011d0:	74 05                	je     4011d7 <WarnAboutPrecedence+0x56>
  4011d2:	83 f8 5e             	cmp    $0x5e,%eax
  4011d5:	75 22                	jne    4011f9 <WarnAboutPrecedence+0x78>
  4011d7:	39 c7                	cmp    %eax,%edi
  4011d9:	74 1e                	je     4011f9 <WarnAboutPrecedence+0x78>
  4011db:	48 8b 46 04          	mov    0x4(%rsi),%rax
  4011df:	8b 56 0c             	mov    0xc(%rsi),%edx
  4011e2:	41 89 f8             	mov    %edi,%r8d
  4011e5:	b9 b8 d3 42 00       	mov    $0x42d3b8,%ecx
  4011ea:	bf 04 00 00 00       	mov    $0x4,%edi
  4011ef:	48 89 c6             	mov    %rax,%rsi
  4011f2:	31 c0                	xor    %eax,%eax
  4011f4:	e9 f7 2a 02 00       	jmpq   423cf0 <WarningCoord>
  4011f9:	c3                   	retq   

00000000004011fa <unknown_option.part.0>:
  4011fa:	48 89 f9             	mov    %rdi,%rcx
  4011fd:	56                   	push   %rsi
  4011fe:	48 8b 3d 6b a0 26 00 	mov    0x26a06b(%rip),%rdi        # 66b270 <stderr@@GLIBC_2.2.5>
  401205:	be 01 00 00 00       	mov    $0x1,%esi
  40120a:	ba ac 64 43 00       	mov    $0x4364ac,%edx
  40120f:	31 c0                	xor    %eax,%eax
  401211:	e8 6a fe ff ff       	callq  401080 <__fprintf_chk@plt>
  401216:	be 01 00 00 00       	mov    $0x1,%esi
  40121b:	31 ff                	xor    %edi,%edi
  40121d:	e8 3e 31 01 00       	callq  414360 <usage>
  401222:	90                   	nop
  401223:	90                   	nop
  401224:	90                   	nop
  401225:	90                   	nop
  401226:	90                   	nop
  401227:	90                   	nop
  401228:	90                   	nop
  401229:	90                   	nop
  40122a:	90                   	nop
  40122b:	90                   	nop
  40122c:	90                   	nop
  40122d:	90                   	nop
  40122e:	90                   	nop
  40122f:	90                   	nop

0000000000401230 <main>:
  401230:	41 57                	push   %r15
  401232:	41 56                	push   %r14
  401234:	41 89 fe             	mov    %edi,%r14d
  401237:	41 55                	push   %r13
  401239:	49 89 f5             	mov    %rsi,%r13
  40123c:	41 54                	push   %r12
  40123e:	55                   	push   %rbp
  40123f:	53                   	push   %rbx
  401240:	48 83 ec 18          	sub    $0x18,%rsp
  401244:	48 8b 06             	mov    (%rsi),%rax
  401247:	83 ff 01             	cmp    $0x1,%edi
  40124a:	48 c7 05 8b b6 26 00 	movq   $0x4364c3,0x26b68b(%rip)        # 66c8e0 <preproc>
  401251:	c3 64 43 00 
  401255:	48 89 05 64 c0 26 00 	mov    %rax,0x26c064(%rip)        # 66d2c0 <Executable>
  40125c:	0f 8e 9e 00 00 00    	jle    401300 <main+0xd0>
  401262:	bb 01 00 00 00       	mov    $0x1,%ebx
  401267:	eb 3f                	jmp    4012a8 <main+0x78>
  401269:	0f 1f 80 00 00 00 00 	nopl   0x0(%rax)
  401270:	48 83 3d 80 b6 26 00 	cmpq   $0x0,0x26b680(%rip)        # 66c8f8 <input_file>
  401277:	00 
  401278:	48 89 e9             	mov    %rbp,%rcx
  40127b:	74 1c                	je     401299 <main+0x69>
  40127d:	48 8b 3d ec 9f 26 00 	mov    0x269fec(%rip),%rdi        # 66b270 <stderr@@GLIBC_2.2.5>
  401284:	ba c0 6f 43 00       	mov    $0x436fc0,%edx
  401289:	be 01 00 00 00       	mov    $0x1,%esi
  40128e:	31 c0                	xor    %eax,%eax
  401290:	e8 eb fd ff ff       	callq  401080 <__fprintf_chk@plt>
  401295:	49 8b 0c 24          	mov    (%r12),%rcx
  401299:	48 89 0d 58 b6 26 00 	mov    %rcx,0x26b658(%rip)        # 66c8f8 <input_file>
  4012a0:	83 c3 01             	add    $0x1,%ebx
  4012a3:	41 39 de             	cmp    %ebx,%r14d
  4012a6:	7e 58                	jle    401300 <main+0xd0>
  4012a8:	4c 63 fb             	movslq %ebx,%r15
  4012ab:	49 c1 e7 03          	shl    $0x3,%r15
  4012af:	4f 8d 64 3d 00       	lea    0x0(%r13,%r15,1),%r12
  4012b4:	49 8b 2c 24          	mov    (%r12),%rbp
  4012b8:	80 7d 00 2d          	cmpb   $0x2d,0x0(%rbp)
  4012bc:	75 b2                	jne    401270 <main+0x40>
  4012be:	0f b6 45 01          	movzbl 0x1(%rbp),%eax
  4012c2:	83 e8 2d             	sub    $0x2d,%eax
  4012c5:	3c 4d                	cmp    $0x4d,%al
  4012c7:	0f 87 13 02 00 00    	ja     4014e0 <main+0x2b0>
  4012cd:	0f b6 c0             	movzbl %al,%eax
  4012d0:	ff 24 c5 b0 70 43 00 	jmpq   *0x4370b0(,%rax,8)
  4012d7:	be 73 65 43 00       	mov    $0x436573,%esi
  4012dc:	48 89 ef             	mov    %rbp,%rdi
  4012df:	e8 9c fc ff ff       	callq  400f80 <strcmp@plt>
  4012e4:	85 c0                	test   %eax,%eax
  4012e6:	0f 85 f4 01 00 00    	jne    4014e0 <main+0x2b0>
  4012ec:	0f 1f 40 00          	nopl   0x0(%rax)
  4012f0:	48 89 ef             	mov    %rbp,%rdi
  4012f3:	83 c3 01             	add    $0x1,%ebx
  4012f6:	e8 e5 2f 01 00       	callq  4142e0 <add_cpp_flag>
  4012fb:	41 39 de             	cmp    %ebx,%r14d
  4012fe:	7f a8                	jg     4012a8 <main+0x78>
  401300:	83 3d 85 ad 26 00 01 	cmpl   $0x1,0x26ad85(%rip)        # 66c08c <GenerateOutput>
  401307:	0f 84 d8 04 00 00    	je     4017e5 <main+0x5b5>
  40130d:	31 c0                	xor    %eax,%eax
  40130f:	e8 4c 35 01 00       	callq  414860 <get_preprocessed_input>
  401314:	48 89 05 8d a3 26 00 	mov    %rax,0x26a38d(%rip)        # 66b6a8 <yyin>
  40131b:	e8 a0 e3 01 00       	callq  41f6c0 <InitTypes>
  401320:	31 f6                	xor    %esi,%esi
  401322:	b9 90 0d 42 00       	mov    $0x420d90,%ecx
  401327:	ba 10 4a 41 00       	mov    $0x414a10,%edx
  40132c:	bf a5 65 43 00       	mov    $0x4365a5,%edi
  401331:	e8 1a d8 01 00       	callq  41eb50 <NewSymbolTable>
  401336:	31 d2                	xor    %edx,%edx
  401338:	b9 40 97 41 00       	mov    $0x419740,%ecx
  40133d:	be 01 00 00 00       	mov    $0x1,%esi
  401342:	bf b1 65 43 00       	mov    $0x4365b1,%edi
  401347:	48 89 05 62 bf 26 00 	mov    %rax,0x26bf62(%rip)        # 66d2b0 <Identifiers>
  40134e:	e8 fd d7 01 00       	callq  41eb50 <NewSymbolTable>
  401353:	31 c9                	xor    %ecx,%ecx
  401355:	31 f6                	xor    %esi,%esi
  401357:	ba 90 e8 41 00       	mov    $0x41e890,%edx
  40135c:	bf b8 65 43 00       	mov    $0x4365b8,%edi
  401361:	48 89 05 40 bf 26 00 	mov    %rax,0x26bf40(%rip)        # 66d2a8 <Labels>
  401368:	e8 e3 d7 01 00       	callq  41eb50 <NewSymbolTable>
  40136d:	31 d2                	xor    %edx,%edx
  40136f:	b9 90 0d 42 00       	mov    $0x420d90,%ecx
  401374:	be 01 00 00 00       	mov    $0x1,%esi
  401379:	bf bd 65 43 00       	mov    $0x4365bd,%edi
  40137e:	48 89 05 43 bf 26 00 	mov    %rax,0x26bf43(%rip)        # 66d2c8 <Tags>
  401385:	e8 c6 d7 01 00       	callq  41eb50 <NewSymbolTable>
  40138a:	48 89 05 0f bf 26 00 	mov    %rax,0x26bf0f(%rip)        # 66d2a0 <Externals>
  401391:	e8 4a 38 01 00       	callq  414be0 <InitOperatorTable>
  401396:	48 c7 05 1f 16 24 00 	movq   $0x4365c7,0x24161f(%rip)        # 6429c0 <PhaseName>
  40139d:	c7 65 43 00 
  4013a1:	e8 da 69 00 00       	callq  407d80 <yyparse>
  4013a6:	66 83 3d b2 bc 26 00 	cmpw   $0x0,0x26bcb2(%rip)        # 66d060 <Level>
  4013ad:	00 
  4013ae:	0f 85 6a 05 00 00    	jne    40191e <main+0x6ee>
  4013b4:	83 3d f1 ac 26 00 00 	cmpl   $0x0,0x26acf1(%rip)        # 66c0ac <PrintSymTables>
  4013bb:	0f 85 6e 05 00 00    	jne    40192f <main+0x6ff>
  4013c1:	83 3d 50 be 26 00 00 	cmpl   $0x0,0x26be50(%rip)        # 66d218 <Errors>
  4013c8:	0f 84 79 05 00 00    	je     401947 <main+0x717>
  4013ce:	83 3d 43 be 26 00 00 	cmpl   $0x0,0x26be43(%rip)        # 66d218 <Errors>
  4013d5:	48 c7 05 e0 15 24 00 	movq   $0x4365f3,0x2415e0(%rip)        # 6429c0 <PhaseName>
  4013dc:	f3 65 43 00 
  4013e0:	75 0d                	jne    4013ef <main+0x1bf>
  4013e2:	83 3d c7 15 24 00 00 	cmpl   $0x0,0x2415c7(%rip)        # 6429b0 <SemanticCheck>
  4013e9:	0f 85 b1 05 00 00    	jne    4019a0 <main+0x770>
  4013ef:	83 3d 22 be 26 00 00 	cmpl   $0x0,0x26be22(%rip)        # 66d218 <Errors>
  4013f6:	48 c7 05 bf 15 24 00 	movq   $0x436602,0x2415bf(%rip)        # 6429c0 <PhaseName>
  4013fd:	02 66 43 00 
  401401:	75 0d                	jne    401410 <main+0x1e0>
  401403:	83 3d a2 15 24 00 00 	cmpl   $0x0,0x2415a2(%rip)        # 6429ac <Analyze>
  40140a:	0f 85 a8 05 00 00    	jne    4019b8 <main+0x788>
  401410:	83 3d 01 be 26 00 00 	cmpl   $0x0,0x26be01(%rip)        # 66d218 <Errors>
  401417:	48 c7 05 9e 15 24 00 	movq   $0x43660a,0x24159e(%rip)        # 6429c0 <PhaseName>
  40141e:	0a 66 43 00 
  401422:	75 0d                	jne    401431 <main+0x201>
  401424:	83 3d 7d 15 24 00 00 	cmpl   $0x0,0x24157d(%rip)        # 6429a8 <Transform>
  40142b:	0f 85 98 05 00 00    	jne    4019c9 <main+0x799>
  401431:	83 3d e0 bd 26 00 00 	cmpl   $0x0,0x26bde0(%rip)        # 66d218 <Errors>
  401438:	48 c7 05 7d 15 24 00 	movq   $0x436614,0x24157d(%rip)        # 6429c0 <PhaseName>
  40143f:	14 66 43 00 
  401443:	0f 84 4d 03 00 00    	je     401796 <main+0x566>
  401449:	8b 0d c9 bd 26 00    	mov    0x26bdc9(%rip),%ecx        # 66d218 <Errors>
  40144f:	85 c9                	test   %ecx,%ecx
  401451:	0f 8e 0c 05 00 00    	jle    401963 <main+0x733>
  401457:	44 8b 0d b6 bd 26 00 	mov    0x26bdb6(%rip),%r9d        # 66d214 <Warnings>
  40145e:	b8 c2 64 43 00       	mov    $0x4364c2,%eax
  401463:	41 b8 87 7b 43 00    	mov    $0x437b87,%r8d
  401469:	48 89 c2             	mov    %rax,%rdx
  40146c:	48 8b 3d fd 9d 26 00 	mov    0x269dfd(%rip),%rdi        # 66b270 <stderr@@GLIBC_2.2.5>
  401473:	be 01 00 00 00       	mov    $0x1,%esi
  401478:	41 83 f9 01          	cmp    $0x1,%r9d
  40147c:	49 0f 45 d0          	cmovne %r8,%rdx
  401480:	83 f9 01             	cmp    $0x1,%ecx
  401483:	48 89 14 24          	mov    %rdx,(%rsp)
  401487:	4c 0f 44 c0          	cmove  %rax,%r8
  40148b:	ba 58 70 43 00       	mov    $0x437058,%edx
  401490:	31 c0                	xor    %eax,%eax
  401492:	e8 e9 fb ff ff       	callq  401080 <__fprintf_chk@plt>
  401497:	83 3d 02 ac 26 00 00 	cmpl   $0x0,0x26ac02(%rip)        # 66c0a0 <PrintAST>
  40149e:	0f 85 3d 05 00 00    	jne    4019e1 <main+0x7b1>
  4014a4:	83 3d 11 ac 26 00 00 	cmpl   $0x0,0x26ac11(%rip)        # 66c0bc <piped_input>
  4014ab:	74 0c                	je     4014b9 <main+0x289>
  4014ad:	48 8b 3d f4 a1 26 00 	mov    0x26a1f4(%rip),%rdi        # 66b6a8 <yyin>
  4014b4:	e8 67 fa ff ff       	callq  400f20 <pclose@plt>
  4014b9:	8b 05 59 bd 26 00    	mov    0x26bd59(%rip),%eax        # 66d218 <Errors>
  4014bf:	48 83 c4 18          	add    $0x18,%rsp
  4014c3:	5b                   	pop    %rbx
  4014c4:	5d                   	pop    %rbp
  4014c5:	41 5c                	pop    %r12
  4014c7:	41 5d                	pop    %r13
  4014c9:	41 5e                	pop    %r14
  4014cb:	41 5f                	pop    %r15
  4014cd:	c3                   	retq   
  4014ce:	80 7d 02 00          	cmpb   $0x0,0x2(%rbp)
  4014d2:	0f 84 8f 06 00 00    	je     401b67 <main+0x937>
  4014d8:	0f 1f 84 00 00 00 00 	nopl   0x0(%rax,%rax,1)
  4014df:	00 
  4014e0:	44 8b 05 cd ab 26 00 	mov    0x26abcd(%rip),%r8d        # 66c0b4 <QuietlyIgnore>
  4014e7:	45 85 c0             	test   %r8d,%r8d
  4014ea:	0f 85 b0 fd ff ff    	jne    4012a0 <main+0x70>
  4014f0:	48 89 ef             	mov    %rbp,%rdi
  4014f3:	e8 02 fd ff ff       	callq  4011fa <unknown_option.part.0>
  4014f8:	c7 05 82 ab 26 00 01 	movl   $0x1,0x26ab82(%rip)        # 66c084 <ZapCode>
  4014ff:	00 00 00 
  401502:	c7 05 80 ab 26 00 01 	movl   $0x1,0x26ab80(%rip)        # 66c08c <GenerateOutput>
  401509:	00 00 00 
  40150c:	e9 8f fd ff ff       	jmpq   4012a0 <main+0x70>
  401511:	be 9c 65 43 00       	mov    $0x43659c,%esi
  401516:	48 89 ef             	mov    %rbp,%rdi
  401519:	e8 62 fa ff ff       	callq  400f80 <strcmp@plt>
  40151e:	85 c0                	test   %eax,%eax
  401520:	75 be                	jne    4014e0 <main+0x2b0>
  401522:	c7 05 58 bd 26 00 01 	movl   $0x1,0x26bd58(%rip)        # 66d284 <yydebug>
  401529:	00 00 00 
  40152c:	e9 6f fd ff ff       	jmpq   4012a0 <main+0x70>
  401531:	be 6e 65 43 00       	mov    $0x43656e,%esi
  401536:	48 89 ef             	mov    %rbp,%rdi
  401539:	e8 42 fa ff ff       	callq  400f80 <strcmp@plt>
  40153e:	85 c0                	test   %eax,%eax
  401540:	75 9e                	jne    4014e0 <main+0x2b0>
  401542:	c7 05 60 ab 26 00 01 	movl   $0x1,0x26ab60(%rip)        # 66c0ac <PrintSymTables>
  401549:	00 00 00 
  40154c:	e9 4f fd ff ff       	jmpq   4012a0 <main+0x70>
  401551:	be 69 65 43 00       	mov    $0x436569,%esi
  401556:	48 89 ef             	mov    %rbp,%rdi
  401559:	e8 22 fa ff ff       	callq  400f80 <strcmp@plt>
  40155e:	85 c0                	test   %eax,%eax
  401560:	0f 85 7a ff ff ff    	jne    4014e0 <main+0x2b0>
  401566:	c7 05 38 ab 26 00 01 	movl   $0x1,0x26ab38(%rip)        # 66c0a8 <PrintPreproc>
  40156d:	00 00 00 
  401570:	e9 2b fd ff ff       	jmpq   4012a0 <main+0x70>
  401575:	80 7d 02 00          	cmpb   $0x0,0x2(%rbp)
  401579:	0f 84 7c 03 00 00    	je     4018fb <main+0x6cb>
  40157f:	be 58 65 43 00       	mov    $0x436558,%esi
  401584:	48 89 ef             	mov    %rbp,%rdi
  401587:	e8 f4 f9 ff ff       	callq  400f80 <strcmp@plt>
  40158c:	85 c0                	test   %eax,%eax
  40158e:	0f 85 c1 04 00 00    	jne    401a55 <main+0x825>
  401594:	c7 05 fe aa 26 00 01 	movl   $0x1,0x26aafe(%rip)        # 66c09c <PrintLineOffset>
  40159b:	00 00 00 
  40159e:	e9 fd fc ff ff       	jmpq   4012a0 <main+0x70>
  4015a3:	be 1d 65 43 00       	mov    $0x43651d,%esi
  4015a8:	48 89 ef             	mov    %rbp,%rdi
  4015ab:	e8 d0 f9 ff ff       	callq  400f80 <strcmp@plt>
  4015b0:	85 c0                	test   %eax,%eax
  4015b2:	0f 84 15 03 00 00    	je     4018cd <main+0x69d>
  4015b8:	be 23 65 43 00       	mov    $0x436523,%esi
  4015bd:	48 89 ef             	mov    %rbp,%rdi
  4015c0:	e8 bb f9 ff ff       	callq  400f80 <strcmp@plt>
  4015c5:	85 c0                	test   %eax,%eax
  4015c7:	0f 84 23 fd ff ff    	je     4012f0 <main+0xc0>
  4015cd:	be 2d 65 43 00       	mov    $0x43652d,%esi
  4015d2:	48 89 ef             	mov    %rbp,%rdi
  4015d5:	e8 a6 f9 ff ff       	callq  400f80 <strcmp@plt>
  4015da:	85 c0                	test   %eax,%eax
  4015dc:	0f 85 94 04 00 00    	jne    401a76 <main+0x846>
  4015e2:	c7 05 c4 13 24 00 00 	movl   $0x0,0x2413c4(%rip)        # 6429b0 <SemanticCheck>
  4015e9:	00 00 00 
  4015ec:	e9 af fc ff ff       	jmpq   4012a0 <main+0x70>
  4015f1:	be 12 65 43 00       	mov    $0x436512,%esi
  4015f6:	48 89 ef             	mov    %rbp,%rdi
  4015f9:	e8 82 f9 ff ff       	callq  400f80 <strcmp@plt>
  4015fe:	85 c0                	test   %eax,%eax
  401600:	0f 84 09 03 00 00    	je     40190f <main+0x6df>
  401606:	be 17 65 43 00       	mov    $0x436517,%esi
  40160b:	48 89 ef             	mov    %rbp,%rdi
  40160e:	e8 6d f9 ff ff       	callq  400f80 <strcmp@plt>
  401613:	85 c0                	test   %eax,%eax
  401615:	0f 85 c5 fe ff ff    	jne    4014e0 <main+0x2b0>
  40161b:	c7 05 6b aa 26 00 01 	movl   $0x1,0x26aa6b(%rip)        # 66c090 <PrintLiveVars>
  401622:	00 00 00 
  401625:	e9 76 fc ff ff       	jmpq   4012a0 <main+0x70>
  40162a:	be f8 64 43 00       	mov    $0x4364f8,%esi
  40162f:	48 89 ef             	mov    %rbp,%rdi
  401632:	e8 49 f9 ff ff       	callq  400f80 <strcmp@plt>
  401637:	85 c0                	test   %eax,%eax
  401639:	0f 84 7f 02 00 00    	je     4018be <main+0x68e>
  40163f:	be 00 65 43 00       	mov    $0x436500,%esi
  401644:	48 89 ef             	mov    %rbp,%rdi
  401647:	e8 34 f9 ff ff       	callq  400f80 <strcmp@plt>
  40164c:	85 c0                	test   %eax,%eax
  40164e:	0f 84 b9 03 00 00    	je     401a0d <main+0x7dd>
  401654:	be 09 65 43 00       	mov    $0x436509,%esi
  401659:	48 89 ef             	mov    %rbp,%rdi
  40165c:	e8 1f f9 ff ff       	callq  400f80 <strcmp@plt>
  401661:	85 c0                	test   %eax,%eax
  401663:	0f 84 a4 03 00 00    	je     401a0d <main+0x7dd>
  401669:	80 7d 02 6c          	cmpb   $0x6c,0x2(%rbp)
  40166d:	0f 85 6d fe ff ff    	jne    4014e0 <main+0x2b0>
  401673:	80 7d 03 00          	cmpb   $0x0,0x3(%rbp)
  401677:	0f 85 63 fe ff ff    	jne    4014e0 <main+0x2b0>
  40167d:	c7 05 11 aa 26 00 01 	movl   $0x1,0x26aa11(%rip)        # 66c098 <IgnoreLineDirectives>
  401684:	00 00 00 
  401687:	e9 14 fc ff ff       	jmpq   4012a0 <main+0x70>
  40168c:	31 f6                	xor    %esi,%esi
  40168e:	31 ff                	xor    %edi,%edi
  401690:	e8 cb 2c 01 00       	callq  414360 <usage>
  401695:	c7 05 19 aa 26 00 01 	movl   $0x1,0x26aa19(%rip)        # 66c0b8 <PrintOpCount>
  40169c:	00 00 00 
  40169f:	e9 fc fb ff ff       	jmpq   4012a0 <main+0x70>
  4016a4:	be f2 64 43 00       	mov    $0x4364f2,%esi
  4016a9:	48 89 ef             	mov    %rbp,%rdi
  4016ac:	e8 cf f8 ff ff       	callq  400f80 <strcmp@plt>
  4016b1:	85 c0                	test   %eax,%eax
  4016b3:	0f 85 27 fe ff ff    	jne    4014e0 <main+0x2b0>
  4016b9:	48 8b 0d b0 9b 26 00 	mov    0x269bb0(%rip),%rcx        # 66b270 <stderr@@GLIBC_2.2.5>
  4016c0:	bf 88 6f 43 00       	mov    $0x436f88,%edi
  4016c5:	ba 37 00 00 00       	mov    $0x37,%edx
  4016ca:	be 01 00 00 00       	mov    $0x1,%esi
  4016cf:	e8 9c f9 ff ff       	callq  401070 <fwrite@plt>
  4016d4:	31 ff                	xor    %edi,%edi
  4016d6:	e8 85 f9 ff ff       	callq  401060 <exit@plt>
  4016db:	be cf 64 43 00       	mov    $0x4364cf,%esi
  4016e0:	48 89 ef             	mov    %rbp,%rdi
  4016e3:	e8 98 f8 ff ff       	callq  400f80 <strcmp@plt>
  4016e8:	85 c0                	test   %eax,%eax
  4016ea:	0f 84 a3 01 00 00    	je     401893 <main+0x663>
  4016f0:	be e7 64 43 00       	mov    $0x4364e7,%esi
  4016f5:	48 89 ef             	mov    %rbp,%rdi
  4016f8:	e8 83 f8 ff ff       	callq  400f80 <strcmp@plt>
  4016fd:	85 c0                	test   %eax,%eax
  4016ff:	0f 85 db fd ff ff    	jne    4014e0 <main+0x2b0>
  401705:	c7 05 91 a9 26 00 01 	movl   $0x1,0x26a991(%rip)        # 66c0a0 <PrintAST>
  40170c:	00 00 00 
  40170f:	e9 8c fb ff ff       	jmpq   4012a0 <main+0x70>
  401714:	c7 05 62 a9 26 00 01 	movl   $0x1,0x26a962(%rip)        # 66c080 <ZapLongCode>
  40171b:	00 00 00 
  40171e:	c7 05 64 a9 26 00 01 	movl   $0x1,0x26a964(%rip)        # 66c08c <GenerateOutput>
  401725:	00 00 00 
  401728:	e9 73 fb ff ff       	jmpq   4012a0 <main+0x70>
  40172d:	be ec 64 43 00       	mov    $0x4364ec,%esi
  401732:	48 89 ef             	mov    %rbp,%rdi
  401735:	e8 46 f8 ff ff       	callq  400f80 <strcmp@plt>
  40173a:	85 c0                	test   %eax,%eax
  40173c:	0f 85 e5 02 00 00    	jne    401a27 <main+0x7f7>
  401742:	c7 05 6c 12 24 00 05 	movl   $0x5,0x24126c(%rip)        # 6429b8 <WarningLevel>
  401749:	00 00 00 
  40174c:	e9 4f fb ff ff       	jmpq   4012a0 <main+0x70>
  401751:	48 83 c5 02          	add    $0x2,%rbp
  401755:	48 89 2d 84 b1 26 00 	mov    %rbp,0x26b184(%rip)        # 66c8e0 <preproc>
  40175c:	e9 3f fb ff ff       	jmpq   4012a0 <main+0x70>
  401761:	c7 05 1d a9 26 00 01 	movl   $0x1,0x26a91d(%rip)        # 66c088 <FormatReadably>
  401768:	00 00 00 
  40176b:	e9 30 fb ff ff       	jmpq   4012a0 <main+0x70>
  401770:	80 7d 02 00          	cmpb   $0x0,0x2(%rbp)
  401774:	0f 85 66 fd ff ff    	jne    4014e0 <main+0x2b0>
  40177a:	e9 71 fb ff ff       	jmpq   4012f0 <main+0xc0>
  40177f:	31 c0                	xor    %eax,%eax
  401781:	83 3d 2c a9 26 00 00 	cmpl   $0x0,0x26a92c(%rip)        # 66c0b4 <QuietlyIgnore>
  401788:	0f 94 c0             	sete   %al
  40178b:	89 05 23 a9 26 00    	mov    %eax,0x26a923(%rip)        # 66c0b4 <QuietlyIgnore>
  401791:	e9 0a fb ff ff       	jmpq   4012a0 <main+0x70>
  401796:	83 3d ef a8 26 00 00 	cmpl   $0x0,0x26a8ef(%rip)        # 66c08c <GenerateOutput>
  40179d:	0f 84 c0 01 00 00    	je     401963 <main+0x733>
  4017a3:	48 8b 3d 46 b1 26 00 	mov    0x26b146(%rip),%rdi        # 66c8f0 <output_file>
  4017aa:	48 85 ff             	test   %rdi,%rdi
  4017ad:	0f 84 1f 03 00 00    	je     401ad2 <main+0x8a2>
  4017b3:	be 0f d8 42 00       	mov    $0x42d80f,%esi
  4017b8:	e8 73 f8 ff ff       	callq  401030 <fopen@plt>
  4017bd:	48 85 c0             	test   %rax,%rax
  4017c0:	48 89 c3             	mov    %rax,%rbx
  4017c3:	0f 84 21 03 00 00    	je     401aea <main+0x8ba>
  4017c9:	48 8b 35 e8 ba 26 00 	mov    0x26bae8(%rip),%rsi        # 66d2b8 <Program>
  4017d0:	48 89 c7             	mov    %rax,%rdi
  4017d3:	e8 68 57 01 00       	callq  416f40 <OutputProgram>
  4017d8:	48 89 df             	mov    %rbx,%rdi
  4017db:	e8 e0 f6 ff ff       	callq  400ec0 <fclose@plt>
  4017e0:	e9 64 fc ff ff       	jmpq   401449 <main+0x219>
  4017e5:	48 8b 1d 0c b1 26 00 	mov    0x26b10c(%rip),%rbx        # 66c8f8 <input_file>
  4017ec:	48 85 db             	test   %rbx,%rbx
  4017ef:	0f 84 18 fb ff ff    	je     40130d <main+0xdd>
  4017f5:	48 83 3d f3 b0 26 00 	cmpq   $0x0,0x26b0f3(%rip)        # 66c8f0 <output_file>
  4017fc:	00 
  4017fd:	0f 85 0a fb ff ff    	jne    40130d <main+0xdd>
  401803:	31 c0                	xor    %eax,%eax
  401805:	48 83 c9 ff          	or     $0xffffffffffffffff,%rcx
  401809:	48 89 df             	mov    %rbx,%rdi
  40180c:	f2 ae                	repnz scas %es:(%rdi),%al
  40180e:	48 89 ca             	mov    %rcx,%rdx
  401811:	48 f7 d2             	not    %rdx
  401814:	48 8d 6a ff          	lea    -0x1(%rdx),%rbp
  401818:	83 fd 01             	cmp    $0x1,%ebp
  40181b:	41 89 ec             	mov    %ebp,%r12d
  40181e:	7e 1b                	jle    40183b <main+0x60b>
  401820:	48 63 c5             	movslq %ebp,%rax
  401823:	be f5 a1 43 00       	mov    $0x43a1f5,%esi
  401828:	83 ed 02             	sub    $0x2,%ebp
  40182b:	48 8d 7c 03 fe       	lea    -0x2(%rbx,%rax,1),%rdi
  401830:	e8 4b f7 ff ff       	callq  400f80 <strcmp@plt>
  401835:	85 c0                	test   %eax,%eax
  401837:	44 0f 44 e5          	cmove  %ebp,%r12d
  40183b:	45 8d 6c 24 05       	lea    0x5(%r12),%r13d
  401840:	be 01 00 00 00       	mov    $0x1,%esi
  401845:	44 89 ef             	mov    %r13d,%edi
  401848:	e8 23 a9 00 00       	callq  40c170 <HeapAllocate>
  40184d:	48 85 c0             	test   %rax,%rax
  401850:	48 89 c5             	mov    %rax,%rbp
  401853:	0f 84 f2 02 00 00    	je     401b4b <main+0x91b>
  401859:	49 63 d4             	movslq %r12d,%rdx
  40185c:	48 89 c7             	mov    %rax,%rdi
  40185f:	48 89 de             	mov    %rbx,%rsi
  401862:	e8 09 f6 ff ff       	callq  400e70 <strncpy@plt>
  401867:	31 c0                	xor    %eax,%eax
  401869:	48 83 c9 ff          	or     $0xffffffffffffffff,%rcx
  40186d:	48 89 ef             	mov    %rbp,%rdi
  401870:	f2 ae                	repnz scas %es:(%rdi),%al
  401872:	48 89 2d 77 b0 26 00 	mov    %rbp,0x26b077(%rip)        # 66c8f0 <output_file>
  401879:	48 89 ca             	mov    %rcx,%rdx
  40187c:	48 f7 d2             	not    %rdx
  40187f:	48 8d 44 15 ff       	lea    -0x1(%rbp,%rdx,1),%rax
  401884:	c7 00 2e 70 2e 63    	movl   $0x632e702e,(%rax)
  40188a:	c6 40 04 00          	movb   $0x0,0x4(%rax)
  40188e:	e9 7a fa ff ff       	jmpq   40130d <main+0xdd>
  401893:	48 81 3d 42 b0 26 00 	cmpq   $0x4364c3,0x26b042(%rip)        # 66c8e0 <preproc>
  40189a:	c3 64 43 00 
  40189e:	c7 05 ec a7 26 00 01 	movl   $0x1,0x26a7ec(%rip)        # 66c094 <ANSIOnly>
  4018a5:	00 00 00 
  4018a8:	0f 85 f2 f9 ff ff    	jne    4012a0 <main+0x70>
  4018ae:	48 c7 05 27 b0 26 00 	movq   $0x4364d5,0x26b027(%rip)        # 66c8e0 <preproc>
  4018b5:	d5 64 43 00 
  4018b9:	e9 e2 f9 ff ff       	jmpq   4012a0 <main+0x70>
  4018be:	c7 05 dc a7 26 00 01 	movl   $0x1,0x26a7dc(%rip)        # 66c0a4 <TrackInsertSymbol>
  4018c5:	00 00 00 
  4018c8:	e9 d3 f9 ff ff       	jmpq   4012a0 <main+0x70>
  4018cd:	48 8b 0d 24 b0 26 00 	mov    0x26b024(%rip),%rcx        # 66c8f8 <input_file>
  4018d4:	83 c3 01             	add    $0x1,%ebx
  4018d7:	48 85 c9             	test   %rcx,%rcx
  4018da:	0f 84 c7 01 00 00    	je     401aa7 <main+0x877>
  4018e0:	48 8b 3d 89 99 26 00 	mov    0x269989(%rip),%rdi        # 66b270 <stderr@@GLIBC_2.2.5>
  4018e7:	ba c0 6f 43 00       	mov    $0x436fc0,%edx
  4018ec:	be 01 00 00 00       	mov    $0x1,%esi
  4018f1:	e8 8a f7 ff ff       	callq  401080 <__fprintf_chk@plt>
  4018f6:	e9 a5 f9 ff ff       	jmpq   4012a0 <main+0x70>
  4018fb:	4b 8b 44 3d 08       	mov    0x8(%r13,%r15,1),%rax
  401900:	83 c3 01             	add    $0x1,%ebx
  401903:	48 89 05 e6 af 26 00 	mov    %rax,0x26afe6(%rip)        # 66c8f0 <output_file>
  40190a:	e9 91 f9 ff ff       	jmpq   4012a0 <main+0x70>
  40190f:	c7 05 97 a7 26 00 01 	movl   $0x1,0x26a797(%rip)        # 66c0b0 <DebugLex>
  401916:	00 00 00 
  401919:	e9 82 f9 ff ff       	jmpq   4012a0 <main+0x70>
  40191e:	bf cf 65 43 00       	mov    $0x4365cf,%edi
  401923:	31 c0                	xor    %eax,%eax
  401925:	e8 96 20 02 00       	callq  4239c0 <SyntaxError>
  40192a:	e9 85 fa ff ff       	jmpq   4013b4 <main+0x184>
  40192f:	48 8b 35 6a b9 26 00 	mov    0x26b96a(%rip),%rsi        # 66d2a0 <Externals>
  401936:	48 8b 3d 23 99 26 00 	mov    0x269923(%rip),%rdi        # 66b260 <stdout@@GLIBC_2.2.5>
  40193d:	e8 ce d8 01 00       	callq  41f210 <PrintSymbolTable>
  401942:	e9 7a fa ff ff       	jmpq   4013c1 <main+0x191>
  401947:	48 8b 3d 6a b9 26 00 	mov    0x26b96a(%rip),%rdi        # 66d2b8 <Program>
  40194e:	48 c7 05 67 10 24 00 	movq   $0x4365e6,0x241067(%rip)        # 6429c0 <PhaseName>
  401955:	e6 65 43 00 
  401959:	e8 d2 1f 02 00       	callq  423930 <VerifyParse>
  40195e:	e9 6b fa ff ff       	jmpq   4013ce <main+0x19e>
  401963:	8b 0d ab b8 26 00    	mov    0x26b8ab(%rip),%ecx        # 66d214 <Warnings>
  401969:	85 c9                	test   %ecx,%ecx
  40196b:	0f 8e 26 fb ff ff    	jle    401497 <main+0x267>
  401971:	48 8b 3d f8 98 26 00 	mov    0x2698f8(%rip),%rdi        # 66b270 <stderr@@GLIBC_2.2.5>
  401978:	83 f9 01             	cmp    $0x1,%ecx
  40197b:	b8 c2 64 43 00       	mov    $0x4364c2,%eax
  401980:	41 b8 87 7b 43 00    	mov    $0x437b87,%r8d
  401986:	ba 88 70 43 00       	mov    $0x437088,%edx
  40198b:	be 01 00 00 00       	mov    $0x1,%esi
  401990:	4c 0f 44 c0          	cmove  %rax,%r8
  401994:	31 c0                	xor    %eax,%eax
  401996:	e8 e5 f6 ff ff       	callq  401080 <__fprintf_chk@plt>
  40199b:	e9 f7 fa ff ff       	jmpq   401497 <main+0x267>
  4019a0:	48 8b 3d 11 b9 26 00 	mov    0x26b911(%rip),%rdi        # 66d2b8 <Program>
  4019a7:	e8 64 bf 01 00       	callq  41d910 <SemanticCheckProgram>
  4019ac:	48 89 05 05 b9 26 00 	mov    %rax,0x26b905(%rip)        # 66d2b8 <Program>
  4019b3:	e9 37 fa ff ff       	jmpq   4013ef <main+0x1bf>
  4019b8:	48 8b 3d f9 b8 26 00 	mov    0x26b8f9(%rip),%rdi        # 66d2b8 <Program>
  4019bf:	e8 8c 47 02 00       	callq  426150 <AnalyzeProgram>
  4019c4:	e9 47 fa ff ff       	jmpq   401410 <main+0x1e0>
  4019c9:	48 8b 3d e8 b8 26 00 	mov    0x26b8e8(%rip),%rdi        # 66d2b8 <Program>
  4019d0:	e8 6b db 01 00       	callq  41f540 <TransformProgram>
  4019d5:	48 89 05 dc b8 26 00 	mov    %rax,0x26b8dc(%rip)        # 66d2b8 <Program>
  4019dc:	e9 50 fa ff ff       	jmpq   401431 <main+0x201>
  4019e1:	48 8b 35 d0 b8 26 00 	mov    0x26b8d0(%rip),%rsi        # 66d2b8 <Program>
  4019e8:	48 8b 3d 71 98 26 00 	mov    0x269871(%rip),%rdi        # 66b260 <stdout@@GLIBC_2.2.5>
  4019ef:	83 ca ff             	or     $0xffffffff,%edx
  4019f2:	e8 b9 6e 01 00       	callq  4188b0 <PrintList>
  4019f7:	48 8b 35 62 98 26 00 	mov    0x269862(%rip),%rsi        # 66b260 <stdout@@GLIBC_2.2.5>
  4019fe:	bf 0a 00 00 00       	mov    $0xa,%edi
  401a03:	e8 38 f5 ff ff       	callq  400f40 <fputc@plt>
  401a08:	e9 97 fa ff ff       	jmpq   4014a4 <main+0x274>
  401a0d:	48 89 ef             	mov    %rbp,%rdi
  401a10:	83 c3 01             	add    $0x1,%ebx
  401a13:	e8 c8 28 01 00       	callq  4142e0 <add_cpp_flag>
  401a18:	4b 8b 7c 3d 08       	mov    0x8(%r13,%r15,1),%rdi
  401a1d:	e8 be 28 01 00       	callq  4142e0 <add_cpp_flag>
  401a22:	e9 79 f8 ff ff       	jmpq   4012a0 <main+0x70>
  401a27:	48 8d 7d 02          	lea    0x2(%rbp),%rdi
     __THROW __nonnull ((1, 4));

__extension__
extern long long int strtoll_l (const char *__restrict __nptr,
				char **__restrict __endptr, int __base,
				locale_t __loc)
  401a2b:	ba 0a 00 00 00       	mov    $0xa,%edx
  401a30:	31 f6                	xor    %esi,%esi
  401a32:	e8 59 f5 ff ff       	callq  400f90 <strtol@plt>
  401a37:	8d 50 ff             	lea    -0x1(%rax),%edx
  401a3a:	83 fa 04             	cmp    $0x4,%edx
  401a3d:	76 79                	jbe    401ab8 <main+0x888>
  401a3f:	83 3d 6e a6 26 00 00 	cmpl   $0x0,0x26a66e(%rip)        # 66c0b4 <QuietlyIgnore>
  401a46:	49 8b 3c 24          	mov    (%r12),%rdi
  401a4a:	0f 85 50 f8 ff ff    	jne    4012a0 <main+0x70>
  401a50:	e9 9e fa ff ff       	jmpq   4014f3 <main+0x2c3>
  401a55:	be 60 65 43 00       	mov    $0x436560,%esi
  401a5a:	48 89 ef             	mov    %rbp,%rdi
  401a5d:	e8 1e f5 ff ff       	callq  400f80 <strcmp@plt>
  401a62:	85 c0                	test   %eax,%eax
  401a64:	0f 85 76 fa ff ff    	jne    4014e0 <main+0x2b0>
  401a6a:	31 f6                	xor    %esi,%esi
  401a6c:	bf 01 00 00 00       	mov    $0x1,%edi
  401a71:	e8 ea 28 01 00       	callq  414360 <usage>
  401a76:	be 34 65 43 00       	mov    $0x436534,%esi
  401a7b:	48 89 ef             	mov    %rbp,%rdi
  401a7e:	e8 fd f4 ff ff       	callq  400f80 <strcmp@plt>
  401a83:	85 c0                	test   %eax,%eax
  401a85:	74 3c                	je     401ac3 <main+0x893>
  401a87:	be 3d 65 43 00       	mov    $0x43653d,%esi
  401a8c:	48 89 ef             	mov    %rbp,%rdi
  401a8f:	e8 ec f4 ff ff       	callq  400f80 <strcmp@plt>
  401a94:	85 c0                	test   %eax,%eax
  401a96:	75 6f                	jne    401b07 <main+0x8d7>
  401a98:	c7 05 ea a5 26 00 00 	movl   $0x0,0x26a5ea(%rip)        # 66c08c <GenerateOutput>
  401a9f:	00 00 00 
  401aa2:	e9 f9 f7 ff ff       	jmpq   4012a0 <main+0x70>
  401aa7:	4b 8b 44 3d 08       	mov    0x8(%r13,%r15,1),%rax
  401aac:	48 89 05 35 ae 26 00 	mov    %rax,0x26ae35(%rip)        # 66c8e8 <stdin_name>
  401ab3:	e9 e8 f7 ff ff       	jmpq   4012a0 <main+0x70>
  401ab8:	89 05 fa 0e 24 00    	mov    %eax,0x240efa(%rip)        # 6429b8 <WarningLevel>
  401abe:	e9 dd f7 ff ff       	jmpq   4012a0 <main+0x70>
  401ac3:	c7 05 db 0e 24 00 00 	movl   $0x0,0x240edb(%rip)        # 6429a8 <Transform>
  401aca:	00 00 00 
  401acd:	e9 ce f7 ff ff       	jmpq   4012a0 <main+0x70>
  401ad2:	48 8b 35 df b7 26 00 	mov    0x26b7df(%rip),%rsi        # 66d2b8 <Program>
  401ad9:	48 8b 3d 80 97 26 00 	mov    0x269780(%rip),%rdi        # 66b260 <stdout@@GLIBC_2.2.5>
  401ae0:	e8 5b 54 01 00       	callq  416f40 <OutputProgram>
  401ae5:	e9 5f f9 ff ff       	jmpq   401449 <main+0x219>
  return __fprintf_chk (__stream, __USE_FORTIFY_LEVEL - 1, __fmt,
			__va_arg_pack ());
}

__fortify_function int
printf (const char *__restrict __fmt, ...)
  401aea:	48 8b 15 ff ad 26 00 	mov    0x26adff(%rip),%rdx        # 66c8f0 <output_file>
  401af1:	be 30 70 43 00       	mov    $0x437030,%esi
  401af6:	bf 01 00 00 00       	mov    $0x1,%edi
  401afb:	31 c0                	xor    %eax,%eax
  401afd:	e8 0e f5 ff ff       	callq  401010 <__printf_chk@plt>
  401b02:	e9 42 f9 ff ff       	jmpq   401449 <main+0x219>
  401b07:	be 46 65 43 00       	mov    $0x436546,%esi
  401b0c:	48 89 ef             	mov    %rbp,%rdi
  401b0f:	e8 6c f4 ff ff       	callq  400f80 <strcmp@plt>
  401b14:	85 c0                	test   %eax,%eax
  401b16:	75 0f                	jne    401b27 <main+0x8f7>
  401b18:	c7 05 92 0e 24 00 00 	movl   $0x0,0x240e92(%rip)        # 6429b4 <Preprocess>
  401b1f:	00 00 00 
  401b22:	e9 79 f7 ff ff       	jmpq   4012a0 <main+0x70>
  401b27:	be 4d 65 43 00       	mov    $0x43654d,%esi
  401b2c:	48 89 ef             	mov    %rbp,%rdi
  401b2f:	e8 4c f4 ff ff       	callq  400f80 <strcmp@plt>
  401b34:	85 c0                	test   %eax,%eax
  401b36:	0f 85 a4 f9 ff ff    	jne    4014e0 <main+0x2b0>
  401b3c:	c7 05 66 0e 24 00 00 	movl   $0x0,0x240e66(%rip)        # 6429ac <Analyze>
  401b43:	00 00 00 
  401b46:	e9 55 f7 ff ff       	jmpq   4012a0 <main+0x70>
  401b4b:	bf 01 00 00 00       	mov    $0x1,%edi
  401b50:	44 89 ea             	mov    %r13d,%edx
  401b53:	be f0 6f 43 00       	mov    $0x436ff0,%esi
  401b58:	31 c0                	xor    %eax,%eax
  401b5a:	e8 b1 f4 ff ff       	callq  401010 <__printf_chk@plt>
  401b5f:	83 cf ff             	or     $0xffffffff,%edi
  401b62:	e8 f9 f4 ff ff       	callq  401060 <exit@plt>
fprintf (FILE *__restrict __stream, const char *__restrict __fmt, ...)
  401b67:	48 8b 3d 02 97 26 00 	mov    0x269702(%rip),%rdi        # 66b270 <stderr@@GLIBC_2.2.5>
  401b6e:	f2 0f 10 05 ba 57 03 	movsd  0x357ba(%rip),%xmm0        # 437330 <VersionNumber+0x8>
  401b75:	00 
  401b76:	41 b8 7a 65 43 00    	mov    $0x43657a,%r8d
  401b7c:	b9 c2 64 43 00       	mov    $0x4364c2,%ecx
  401b81:	ba 86 65 43 00       	mov    $0x436586,%edx
  401b86:	be 01 00 00 00       	mov    $0x1,%esi
  401b8b:	b8 01 00 00 00       	mov    $0x1,%eax
  401b90:	e8 eb f4 ff ff       	callq  401080 <__fprintf_chk@plt>
  401b95:	31 ff                	xor    %edi,%edi
  401b97:	e8 c4 f4 ff ff       	callq  401060 <exit@plt>

0000000000401b9c <_start>:
  401b9c:	31 ed                	xor    %ebp,%ebp
  401b9e:	49 89 d1             	mov    %rdx,%r9
  401ba1:	5e                   	pop    %rsi
  401ba2:	48 89 e2             	mov    %rsp,%rdx
  401ba5:	48 83 e4 f0          	and    $0xfffffffffffffff0,%rsp
  401ba9:	50                   	push   %rax
  401baa:	54                   	push   %rsp
  401bab:	49 c7 c0 60 6b 42 00 	mov    $0x426b60,%r8
  401bb2:	48 c7 c1 d0 6a 42 00 	mov    $0x426ad0,%rcx
  401bb9:	48 c7 c7 30 12 40 00 	mov    $0x401230,%rdi
  401bc0:	e8 8b f3 ff ff       	callq  400f50 <__libc_start_main@plt>
  401bc5:	f4                   	hlt    
  401bc6:	90                   	nop
  401bc7:	90                   	nop

0000000000401bc8 <call_gmon_start>:
  401bc8:	48 83 ec 08          	sub    $0x8,%rsp
  401bcc:	48 8b 05 0d 04 24 00 	mov    0x24040d(%rip),%rax        # 641fe0 <__gmon_start__>
  401bd3:	48 85 c0             	test   %rax,%rax
  401bd6:	74 02                	je     401bda <call_gmon_start+0x12>
  401bd8:	ff d0                	callq  *%rax
  401bda:	48 83 c4 08          	add    $0x8,%rsp
  401bde:	c3                   	retq   
  401bdf:	90                   	nop

0000000000401be0 <deregister_tm_clones>:
  401be0:	b8 67 b2 66 00       	mov    $0x66b267,%eax
  401be5:	55                   	push   %rbp
  401be6:	48 2d 60 b2 66 00    	sub    $0x66b260,%rax
  401bec:	48 83 f8 0e          	cmp    $0xe,%rax
  401bf0:	48 89 e5             	mov    %rsp,%rbp
  401bf3:	77 02                	ja     401bf7 <deregister_tm_clones+0x17>
  401bf5:	5d                   	pop    %rbp
  401bf6:	c3                   	retq   
  401bf7:	b8 00 00 00 00       	mov    $0x0,%eax
  401bfc:	48 85 c0             	test   %rax,%rax
  401bff:	74 f4                	je     401bf5 <deregister_tm_clones+0x15>
  401c01:	5d                   	pop    %rbp
  401c02:	bf 60 b2 66 00       	mov    $0x66b260,%edi
  401c07:	ff e0                	jmpq   *%rax
  401c09:	0f 1f 80 00 00 00 00 	nopl   0x0(%rax)

0000000000401c10 <register_tm_clones>:
  401c10:	b8 60 b2 66 00       	mov    $0x66b260,%eax
  401c15:	55                   	push   %rbp
  401c16:	48 2d 60 b2 66 00    	sub    $0x66b260,%rax
  401c1c:	48 c1 f8 03          	sar    $0x3,%rax
  401c20:	48 89 e5             	mov    %rsp,%rbp
  401c23:	48 89 c2             	mov    %rax,%rdx
  401c26:	48 c1 ea 3f          	shr    $0x3f,%rdx
  401c2a:	48 01 d0             	add    %rdx,%rax
  401c2d:	48 d1 f8             	sar    %rax
  401c30:	75 02                	jne    401c34 <register_tm_clones+0x24>
  401c32:	5d                   	pop    %rbp
  401c33:	c3                   	retq   
  401c34:	ba 00 00 00 00       	mov    $0x0,%edx
  401c39:	48 85 d2             	test   %rdx,%rdx
  401c3c:	74 f4                	je     401c32 <register_tm_clones+0x22>
  401c3e:	5d                   	pop    %rbp
  401c3f:	48 89 c6             	mov    %rax,%rsi
  401c42:	bf 60 b2 66 00       	mov    $0x66b260,%edi
  401c47:	ff e2                	jmpq   *%rdx
  401c49:	0f 1f 80 00 00 00 00 	nopl   0x0(%rax)

0000000000401c50 <__do_global_dtors_aux>:
  401c50:	80 3d 21 96 26 00 00 	cmpb   $0x0,0x269621(%rip)        # 66b278 <completed.6976>
  401c57:	75 11                	jne    401c6a <__do_global_dtors_aux+0x1a>
  401c59:	55                   	push   %rbp
  401c5a:	48 89 e5             	mov    %rsp,%rbp
  401c5d:	e8 7e ff ff ff       	callq  401be0 <deregister_tm_clones>
  401c62:	5d                   	pop    %rbp
  401c63:	c6 05 0e 96 26 00 01 	movb   $0x1,0x26960e(%rip)        # 66b278 <completed.6976>
  401c6a:	f3 c3                	repz retq 
  401c6c:	0f 1f 40 00          	nopl   0x0(%rax)

0000000000401c70 <frame_dummy>:
  401c70:	48 83 3d 90 01 24 00 	cmpq   $0x0,0x240190(%rip)        # 641e08 <__JCR_END__>
  401c77:	00 
  401c78:	74 1e                	je     401c98 <frame_dummy+0x28>
  401c7a:	b8 00 00 00 00       	mov    $0x0,%eax
  401c7f:	48 85 c0             	test   %rax,%rax
  401c82:	74 14                	je     401c98 <frame_dummy+0x28>
  401c84:	55                   	push   %rbp
  401c85:	bf 08 1e 64 00       	mov    $0x641e08,%edi
  401c8a:	48 89 e5             	mov    %rsp,%rbp
  401c8d:	ff d0                	callq  *%rax
  401c8f:	5d                   	pop    %rbp
  401c90:	e9 7b ff ff ff       	jmpq   401c10 <register_tm_clones>
  401c95:	0f 1f 00             	nopl   (%rax)
  401c98:	e9 73 ff ff ff       	jmpq   401c10 <register_tm_clones>
  401c9d:	90                   	nop
  401c9e:	90                   	nop
  401c9f:	90                   	nop

0000000000401ca0 <parse_char_constant>:
  401ca0:	55                   	push   %rbp
  401ca1:	48 89 f5             	mov    %rsi,%rbp
  401ca4:	53                   	push   %rbx
  401ca5:	48 89 fb             	mov    %rdi,%rbx
  401ca8:	48 83 ec 08          	sub    $0x8,%rsp
  401cac:	80 3f 5c             	cmpb   $0x5c,(%rdi)
  401caf:	74 14                	je     401cc5 <parse_char_constant+0x25>
  401cb1:	ba 84 6b 42 00       	mov    $0x426b84,%edx
  401cb6:	be 4f 02 00 00       	mov    $0x24f,%esi
  401cbb:	bf 91 6b 42 00       	mov    $0x426b91,%edi
  401cc0:	e8 7b 1c 02 00       	callq  423940 <Fail>
  401cc5:	c7 45 00 02 00 00 00 	movl   $0x2,0x0(%rbp)
  401ccc:	0f be 73 01          	movsbl 0x1(%rbx),%esi
  401cd0:	8d 46 de             	lea    -0x22(%rsi),%eax
  401cd3:	3c 56                	cmp    $0x56,%al
  401cd5:	0f 87 05 01 00 00    	ja     401de0 <parse_char_constant+0x140>
  401cdb:	0f b6 c0             	movzbl %al,%eax
  401cde:	ff 24 c5 40 70 42 00 	jmpq   *0x427040(,%rax,8)
  401ce5:	0f 1f 00             	nopl   (%rax)
  401ce8:	b8 09 00 00 00       	mov    $0x9,%eax
  401ced:	0f 1f 00             	nopl   (%rax)
  401cf0:	48 83 c4 08          	add    $0x8,%rsp
  401cf4:	5b                   	pop    %rbx
  401cf5:	5d                   	pop    %rbp
  401cf6:	c3                   	retq   
  401cf7:	66 0f 1f 84 00 00 00 	nopw   0x0(%rax,%rax,1)
  401cfe:	00 00 
  401d00:	b8 0b 00 00 00       	mov    $0xb,%eax
  401d05:	eb e9                	jmp    401cf0 <parse_char_constant+0x50>
  401d07:	66 0f 1f 84 00 00 00 	nopw   0x0(%rax,%rax,1)
  401d0e:	00 00 
  401d10:	31 d2                	xor    %edx,%edx
  401d12:	31 c0                	xor    %eax,%eax
  401d14:	eb 16                	jmp    401d2c <parse_char_constant+0x8c>
  401d16:	66 2e 0f 1f 84 00 00 	nopw   %cs:0x0(%rax,%rax,1)
  401d1d:	00 00 00 
  401d20:	83 e9 30             	sub    $0x30,%ecx
  401d23:	c1 e0 04             	shl    $0x4,%eax
  401d26:	48 83 c2 01          	add    $0x1,%rdx
  401d2a:	01 c8                	add    %ecx,%eax
  401d2c:	0f be 4c 13 02       	movsbl 0x2(%rbx,%rdx,1),%ecx
  401d31:	8d 7a 02             	lea    0x2(%rdx),%edi
  401d34:	8d 71 d0             	lea    -0x30(%rcx),%esi
  401d37:	40 80 fe 09          	cmp    $0x9,%sil
  401d3b:	76 e3                	jbe    401d20 <parse_char_constant+0x80>
  401d3d:	8d 71 9f             	lea    -0x61(%rcx),%esi
  401d40:	40 80 fe 05          	cmp    $0x5,%sil
  401d44:	0f 87 d6 00 00 00    	ja     401e20 <parse_char_constant+0x180>
  401d4a:	83 e9 57             	sub    $0x57,%ecx
  401d4d:	eb d4                	jmp    401d23 <parse_char_constant+0x83>
  401d4f:	90                   	nop
  401d50:	b8 22 00 00 00       	mov    $0x22,%eax
  401d55:	eb 99                	jmp    401cf0 <parse_char_constant+0x50>
  401d57:	66 0f 1f 84 00 00 00 	nopw   0x0(%rax,%rax,1)
  401d5e:	00 00 
  401d60:	b8 27 00 00 00       	mov    $0x27,%eax
  401d65:	eb 89                	jmp    401cf0 <parse_char_constant+0x50>
  401d67:	66 0f 1f 84 00 00 00 	nopw   0x0(%rax,%rax,1)
  401d6e:	00 00 
  401d70:	b8 3f 00 00 00       	mov    $0x3f,%eax
  401d75:	e9 76 ff ff ff       	jmpq   401cf0 <parse_char_constant+0x50>
  401d7a:	66 0f 1f 44 00 00    	nopw   0x0(%rax,%rax,1)
  401d80:	b8 5c 00 00 00       	mov    $0x5c,%eax
  401d85:	e9 66 ff ff ff       	jmpq   401cf0 <parse_char_constant+0x50>
  401d8a:	66 0f 1f 44 00 00    	nopw   0x0(%rax,%rax,1)
  401d90:	b8 07 00 00 00       	mov    $0x7,%eax
  401d95:	e9 56 ff ff ff       	jmpq   401cf0 <parse_char_constant+0x50>
  401d9a:	66 0f 1f 44 00 00    	nopw   0x0(%rax,%rax,1)
  401da0:	b8 08 00 00 00       	mov    $0x8,%eax
  401da5:	e9 46 ff ff ff       	jmpq   401cf0 <parse_char_constant+0x50>
  401daa:	66 0f 1f 44 00 00    	nopw   0x0(%rax,%rax,1)
  401db0:	b8 0c 00 00 00       	mov    $0xc,%eax
  401db5:	e9 36 ff ff ff       	jmpq   401cf0 <parse_char_constant+0x50>
  401dba:	66 0f 1f 44 00 00    	nopw   0x0(%rax,%rax,1)
  401dc0:	b8 0a 00 00 00       	mov    $0xa,%eax
  401dc5:	e9 26 ff ff ff       	jmpq   401cf0 <parse_char_constant+0x50>
  401dca:	66 0f 1f 44 00 00    	nopw   0x0(%rax,%rax,1)
  401dd0:	b8 0d 00 00 00       	mov    $0xd,%eax
  401dd5:	e9 16 ff ff ff       	jmpq   401cf0 <parse_char_constant+0x50>
  401dda:	66 0f 1f 44 00 00    	nopw   0x0(%rax,%rax,1)
  401de0:	8d 46 d0             	lea    -0x30(%rsi),%eax
  401de3:	3c 07                	cmp    $0x7,%al
  401de5:	0f 87 7d 00 00 00    	ja     401e68 <parse_char_constant+0x1c8>
  401deb:	40 0f be ce          	movsbl %sil,%ecx
  401def:	48 83 c3 02          	add    $0x2,%rbx
  401df3:	ba 01 00 00 00       	mov    $0x1,%edx
  401df8:	83 e9 30             	sub    $0x30,%ecx
  401dfb:	31 c0                	xor    %eax,%eax
  401dfd:	8d 04 c1             	lea    (%rcx,%rax,8),%eax
  401e00:	0f be 0b             	movsbl (%rbx),%ecx
  401e03:	83 c2 01             	add    $0x1,%edx
  401e06:	8d 71 d0             	lea    -0x30(%rcx),%esi
  401e09:	40 80 fe 07          	cmp    $0x7,%sil
  401e0d:	76 71                	jbe    401e80 <parse_char_constant+0x1e0>
  401e0f:	3d 00 01 00 00       	cmp    $0x100,%eax
  401e14:	7f 7f                	jg     401e95 <parse_char_constant+0x1f5>
  401e16:	89 55 00             	mov    %edx,0x0(%rbp)
  401e19:	e9 d2 fe ff ff       	jmpq   401cf0 <parse_char_constant+0x50>
  401e1e:	66 90                	xchg   %ax,%ax
  401e20:	8d 71 bf             	lea    -0x41(%rcx),%esi
  401e23:	40 80 fe 05          	cmp    $0x5,%sil
  401e27:	77 0f                	ja     401e38 <parse_char_constant+0x198>
  401e29:	83 e9 37             	sub    $0x37,%ecx
  401e2c:	e9 f2 fe ff ff       	jmpq   401d23 <parse_char_constant+0x83>
  401e31:	0f 1f 80 00 00 00 00 	nopl   0x0(%rax)
  401e38:	83 ff 02             	cmp    $0x2,%edi
  401e3b:	89 7d 00             	mov    %edi,0x0(%rbp)
  401e3e:	74 6b                	je     401eab <parse_char_constant+0x20b>
  401e40:	3d 00 01 00 00       	cmp    $0x100,%eax
  401e45:	0f 8e a5 fe ff ff    	jle    401cf0 <parse_char_constant+0x50>
  401e4b:	31 c0                	xor    %eax,%eax
  401e4d:	bf b8 6c 42 00       	mov    $0x426cb8,%edi
  401e52:	e8 69 1b 02 00       	callq  4239c0 <SyntaxError>
  401e57:	b8 ff ff ff ff       	mov    $0xffffffff,%eax
  401e5c:	e9 8f fe ff ff       	jmpq   401cf0 <parse_char_constant+0x50>
  401e61:	0f 1f 80 00 00 00 00 	nopl   0x0(%rax)
  401e68:	31 c0                	xor    %eax,%eax
  401e6a:	bf 10 6d 42 00       	mov    $0x426d10,%edi
  401e6f:	e8 4c 1b 02 00       	callq  4239c0 <SyntaxError>
  401e74:	b8 ff ff ff ff       	mov    $0xffffffff,%eax
  401e79:	e9 72 fe ff ff       	jmpq   401cf0 <parse_char_constant+0x50>
  401e7e:	66 90                	xchg   %ax,%ax
  401e80:	83 e9 30             	sub    $0x30,%ecx
  401e83:	48 83 c3 01          	add    $0x1,%rbx
  401e87:	83 fa 04             	cmp    $0x4,%edx
  401e8a:	0f 85 6d ff ff ff    	jne    401dfd <parse_char_constant+0x15d>
  401e90:	e9 7a ff ff ff       	jmpq   401e0f <parse_char_constant+0x16f>
  401e95:	31 c0                	xor    %eax,%eax
  401e97:	bf e8 6c 42 00       	mov    $0x426ce8,%edi
  401e9c:	e8 1f 1b 02 00       	callq  4239c0 <SyntaxError>
  401ea1:	b8 ff ff ff ff       	mov    $0xffffffff,%eax
  401ea6:	e9 45 fe ff ff       	jmpq   401cf0 <parse_char_constant+0x50>
  401eab:	31 c0                	xor    %eax,%eax
  401ead:	bf 96 6b 42 00       	mov    $0x426b96,%edi
  401eb2:	e8 09 1b 02 00       	callq  4239c0 <SyntaxError>
  401eb7:	83 c8 ff             	or     $0xffffffff,%eax
  401eba:	e9 31 fe ff ff       	jmpq   401cf0 <parse_char_constant+0x50>
  401ebf:	90                   	nop

0000000000401ec0 <convert_escape_sequences>:
  401ec0:	41 54                	push   %r12
  401ec2:	49 89 fc             	mov    %rdi,%r12
  401ec5:	55                   	push   %rbp
  401ec6:	48 89 fd             	mov    %rdi,%rbp
  401ec9:	53                   	push   %rbx
  401eca:	48 8d 5f 01          	lea    0x1(%rdi),%rbx
  401ece:	48 83 ec 10          	sub    $0x10,%rsp
  401ed2:	eb 0f                	jmp    401ee3 <convert_escape_sequences+0x23>
  401ed4:	0f 1f 40 00          	nopl   0x0(%rax)
  401ed8:	48 83 c5 01          	add    $0x1,%rbp
  401edc:	88 53 ff             	mov    %dl,-0x1(%rbx)
  401edf:	48 83 c3 01          	add    $0x1,%rbx
  401ee3:	0f b6 55 00          	movzbl 0x0(%rbp),%edx
  401ee7:	84 d2                	test   %dl,%dl
  401ee9:	74 2d                	je     401f18 <convert_escape_sequences+0x58>
  401eeb:	80 fa 5c             	cmp    $0x5c,%dl
  401eee:	75 e8                	jne    401ed8 <convert_escape_sequences+0x18>
  401ef0:	48 8d 74 24 0c       	lea    0xc(%rsp),%rsi
  401ef5:	48 89 ef             	mov    %rbp,%rdi
  401ef8:	e8 a3 fd ff ff       	callq  401ca0 <parse_char_constant>
  401efd:	ba 58 00 00 00       	mov    $0x58,%edx
  401f02:	85 c0                	test   %eax,%eax
  401f04:	0f 49 d0             	cmovns %eax,%edx
  401f07:	48 63 44 24 0c       	movslq 0xc(%rsp),%rax
  401f0c:	88 53 ff             	mov    %dl,-0x1(%rbx)
  401f0f:	48 01 c5             	add    %rax,%rbp
  401f12:	eb cb                	jmp    401edf <convert_escape_sequences+0x1f>
  401f14:	0f 1f 40 00          	nopl   0x0(%rax)
  401f18:	c6 43 ff 00          	movb   $0x0,-0x1(%rbx)
  401f1c:	48 83 c4 10          	add    $0x10,%rsp
  401f20:	4c 89 e0             	mov    %r12,%rax
  401f23:	5b                   	pop    %rbx
  401f24:	5d                   	pop    %rbp
  401f25:	41 5c                	pop    %r12
  401f27:	c3                   	retq   
  401f28:	0f 1f 84 00 00 00 00 	nopl   0x0(%rax,%rax,1)
  401f2f:	00 

0000000000401f30 <yy_fatal_error>:
  401f30:	48 83 ec 08          	sub    $0x8,%rsp
  401f34:	48 89 f9             	mov    %rdi,%rcx
  401f37:	48 8b 3d 32 93 26 00 	mov    0x269332(%rip),%rdi        # 66b270 <stderr@@GLIBC_2.2.5>
  401f3e:	ba 8a aa 43 00       	mov    $0x43aa8a,%edx
  401f43:	be 01 00 00 00       	mov    $0x1,%esi
  401f48:	31 c0                	xor    %eax,%eax
  401f4a:	e8 31 f1 ff ff       	callq  401080 <__fprintf_chk@plt>
  401f4f:	bf 02 00 00 00       	mov    $0x2,%edi
  401f54:	e8 07 f1 ff ff       	callq  401060 <exit@plt>
  401f59:	0f 1f 80 00 00 00 00 	nopl   0x0(%rax)

0000000000401f60 <HasSuffix.constprop.2>:
  401f60:	53                   	push   %rbx
  401f61:	48 89 fb             	mov    %rdi,%rbx
  401f64:	e8 77 ef ff ff       	callq  400ee0 <strlen@plt>
  401f69:	31 d2                	xor    %edx,%edx
  401f6b:	83 f8 01             	cmp    $0x1,%eax
  401f6e:	7e 19                	jle    401f89 <HasSuffix.constprop.2+0x29>
  401f70:	48 98                	cltq   
  401f72:	bf cb 6b 42 00       	mov    $0x426bcb,%edi
  401f77:	b9 03 00 00 00       	mov    $0x3,%ecx
  401f7c:	48 8d 74 03 fe       	lea    -0x2(%rbx,%rax,1),%rsi
  401f81:	f3 a6                	repz cmpsb %es:(%rdi),%ds:(%rsi)
  401f83:	0f 94 c2             	sete   %dl
  401f86:	0f b6 d2             	movzbl %dl,%edx
  401f89:	89 d0                	mov    %edx,%eax
  401f8b:	5b                   	pop    %rbx
  401f8c:	c3                   	retq   
  401f8d:	0f 1f 00             	nopl   (%rax)

0000000000401f90 <char_constant>:
  401f90:	55                   	push   %rbp
  401f91:	53                   	push   %rbx
  401f92:	48 89 fb             	mov    %rdi,%rbx
  401f95:	48 83 ec 18          	sub    $0x18,%rsp
  401f99:	80 3f 27             	cmpb   $0x27,(%rdi)
  401f9c:	74 14                	je     401fb2 <char_constant+0x22>
  401f9e:	ba ce 6b 42 00       	mov    $0x426bce,%edx
  401fa3:	be 8a 02 00 00       	mov    $0x28a,%esi
  401fa8:	bf 91 6b 42 00       	mov    $0x426b91,%edi
  401fad:	e8 8e 19 02 00       	callq  423940 <Fail>
  401fb2:	0f be 6b 01          	movsbl 0x1(%rbx),%ebp
  401fb6:	40 80 fd 5c          	cmp    $0x5c,%bpl
  401fba:	0f 84 c0 00 00 00    	je     402080 <char_constant+0xf0>
  401fc0:	80 7b 02 27          	cmpb   $0x27,0x2(%rbx)
  401fc4:	74 14                	je     401fda <char_constant+0x4a>
  401fc6:	48 89 da             	mov    %rbx,%rdx
  401fc9:	be 30 6d 42 00       	mov    $0x426d30,%esi
  401fce:	bf 01 00 00 00       	mov    $0x1,%edi
  401fd3:	31 c0                	xor    %eax,%eax
  401fd5:	e8 d6 1a 02 00       	callq  423ab0 <Warning>
  401fda:	8b 05 a0 92 26 00    	mov    0x2692a0(%rip),%eax        # 66b280 <CurrentFile>
  401fe0:	48 8b 0d d1 96 26 00 	mov    0x2696d1(%rip),%rcx        # 66b6b8 <line_start>
  401fe7:	4c 8b 0d 72 b2 26 00 	mov    0x26b272(%rip),%r9        # 66d260 <yytext>
  401fee:	66 89 05 a1 b2 26 00 	mov    %ax,0x26b2a1(%rip)        # 66d296 <yylval+0x6>
  401ff5:	8b 05 d1 09 24 00    	mov    0x2409d1(%rip),%eax        # 6429cc <Line>
  401ffb:	4c 39 c9             	cmp    %r9,%rcx
  401ffe:	89 05 8c b2 26 00    	mov    %eax,0x26b28c(%rip)        # 66d290 <yylval>
  402004:	8b 05 7a 92 26 00    	mov    0x26927a(%rip),%eax        # 66b284 <CurrentIncludedp>
  40200a:	89 05 88 b2 26 00    	mov    %eax,0x26b288(%rip)        # 66d298 <yylval+0x8>
  402010:	0f 83 9c 00 00 00    	jae    4020b2 <char_constant+0x122>
  402016:	45 31 c0             	xor    %r8d,%r8d
  402019:	eb 12                	jmp    40202d <char_constant+0x9d>
  40201b:	0f 1f 44 00 00       	nopl   0x0(%rax,%rax,1)
  402020:	48 83 c1 01          	add    $0x1,%rcx
  402024:	41 83 c0 01          	add    $0x1,%r8d
  402028:	4c 39 c9             	cmp    %r9,%rcx
  40202b:	74 25                	je     402052 <char_constant+0xc2>
  40202d:	80 39 09             	cmpb   $0x9,(%rcx)
  402030:	75 ee                	jne    402020 <char_constant+0x90>
  402032:	41 8d 40 07          	lea    0x7(%r8),%eax
  402036:	45 85 c0             	test   %r8d,%r8d
  402039:	44 0f 48 c0          	cmovs  %eax,%r8d
  40203d:	48 83 c1 01          	add    $0x1,%rcx
  402041:	41 c1 f8 03          	sar    $0x3,%r8d
  402045:	4c 39 c9             	cmp    %r9,%rcx
  402048:	46 8d 04 c5 08 00 00 	lea    0x8(,%r8,8),%r8d
  40204f:	00 
  402050:	75 db                	jne    40202d <char_constant+0x9d>
  402052:	48 89 df             	mov    %rbx,%rdi
  402055:	66 44 89 05 37 b2 26 	mov    %r8w,0x26b237(%rip)        # 66d294 <yylval+0x4>
  40205c:	00 
  40205d:	e8 8e bc 01 00       	callq  41dcf0 <UniqueString>
  402062:	48 8b 15 27 b2 26 00 	mov    0x26b227(%rip),%rdx        # 66d290 <yylval>
  402069:	8b 0d 29 b2 26 00    	mov    0x26b229(%rip),%ecx        # 66d298 <yylval+0x8>
  40206f:	89 ee                	mov    %ebp,%esi
  402071:	48 89 c7             	mov    %rax,%rdi
  402074:	e8 b7 a1 00 00       	callq  40c230 <MakeConstSintTextCoord>
  402079:	48 83 c4 18          	add    $0x18,%rsp
  40207d:	5b                   	pop    %rbx
  40207e:	5d                   	pop    %rbp
  40207f:	c3                   	retq   
  402080:	48 8d 7b 01          	lea    0x1(%rbx),%rdi
  402084:	48 8d 74 24 0c       	lea    0xc(%rsp),%rsi
  402089:	e8 12 fc ff ff       	callq  401ca0 <parse_char_constant>
  40208e:	85 c0                	test   %eax,%eax
  402090:	89 c5                	mov    %eax,%ebp
  402092:	b8 58 00 00 00       	mov    $0x58,%eax
  402097:	0f 48 e8             	cmovs  %eax,%ebp
  40209a:	8b 44 24 0c          	mov    0xc(%rsp),%eax
  40209e:	83 c0 01             	add    $0x1,%eax
  4020a1:	48 98                	cltq   
  4020a3:	80 3c 03 27          	cmpb   $0x27,(%rbx,%rax,1)
  4020a7:	0f 85 19 ff ff ff    	jne    401fc6 <char_constant+0x36>
  4020ad:	e9 28 ff ff ff       	jmpq   401fda <char_constant+0x4a>
  4020b2:	45 31 c0             	xor    %r8d,%r8d
  4020b5:	eb 9b                	jmp    402052 <char_constant+0xc2>
  4020b7:	66 0f 1f 84 00 00 00 	nopw   0x0(%rax,%rax,1)
  4020be:	00 00 

00000000004020c0 <int_constant.isra.1>:
  4020c0:	41 57                	push   %r15
  4020c2:	41 56                	push   %r14
  4020c4:	49 89 fe             	mov    %rdi,%r14
  4020c7:	41 55                	push   %r13
  4020c9:	45 31 ed             	xor    %r13d,%r13d
  4020cc:	41 54                	push   %r12
  4020ce:	55                   	push   %rbp
  4020cf:	53                   	push   %rbx
  4020d0:	48 83 ec 08          	sub    $0x8,%rsp
  4020d4:	85 f6                	test   %esi,%esi
  4020d6:	41 0f 94 c5          	sete   %r13b
  4020da:	45 31 e4             	xor    %r12d,%r12d
  4020dd:	e8 fe ed ff ff       	callq  400ee0 <strlen@plt>
  4020e2:	49 8d 5c 06 ff       	lea    -0x1(%r14,%rax,1),%rbx
  4020e7:	e8 a4 ef ff ff       	callq  401090 <__ctype_b_loc@plt>
  4020ec:	4c 8b 38             	mov    (%rax),%r15
  4020ef:	eb 16                	jmp    402107 <int_constant.isra.1+0x47>
  4020f1:	0f 1f 80 00 00 00 00 	nopl   0x0(%rax)
  4020f8:	3c 4c                	cmp    $0x4c,%al
  4020fa:	0f 94 c0             	sete   %al
  4020fd:	0f b6 c0             	movzbl %al,%eax
  402100:	41 01 c4             	add    %eax,%r12d
  402103:	48 83 eb 01          	sub    $0x1,%rbx
  402107:	48 0f be 2b          	movsbq (%rbx),%rbp
  40210b:	41 f6 44 6f 01 10    	testb  $0x10,0x1(%r15,%rbp,2)
  402111:	75 1d                	jne    402130 <int_constant.isra.1+0x70>
  402113:	e8 08 ed ff ff       	callq  400e20 <__ctype_toupper_loc@plt>
  402118:	48 8b 00             	mov    (%rax),%rax
  40211b:	8b 04 a8             	mov    (%rax,%rbp,4),%eax
  40211e:	3c 55                	cmp    $0x55,%al
  402120:	75 d6                	jne    4020f8 <int_constant.isra.1+0x38>
  402122:	41 bd 01 00 00 00    	mov    $0x1,%r13d
  402128:	eb d9                	jmp    402103 <int_constant.isra.1+0x43>
  40212a:	66 0f 1f 44 00 00    	nopw   0x0(%rax,%rax,1)
  402130:	8b 05 4a 91 26 00    	mov    0x26914a(%rip),%eax        # 66b280 <CurrentFile>
  402136:	48 8b 0d 23 b1 26 00 	mov    0x26b123(%rip),%rcx        # 66d260 <yytext>
  40213d:	66 89 05 52 b1 26 00 	mov    %ax,0x26b152(%rip)        # 66d296 <yylval+0x6>
  402144:	8b 05 82 08 24 00    	mov    0x240882(%rip),%eax        # 6429cc <Line>
  40214a:	89 05 40 b1 26 00    	mov    %eax,0x26b140(%rip)        # 66d290 <yylval>
  402150:	8b 05 2e 91 26 00    	mov    0x26912e(%rip),%eax        # 66b284 <CurrentIncludedp>
  402156:	89 05 3c b1 26 00    	mov    %eax,0x26b13c(%rip)        # 66d298 <yylval+0x8>
  40215c:	48 8b 05 55 95 26 00 	mov    0x269555(%rip),%rax        # 66b6b8 <line_start>
  402163:	48 39 c8             	cmp    %rcx,%rax
  402166:	0f 83 02 02 00 00    	jae    40236e <int_constant.isra.1+0x2ae>
  40216c:	31 d2                	xor    %edx,%edx
  40216e:	eb 0c                	jmp    40217c <int_constant.isra.1+0xbc>
  402170:	48 83 c0 01          	add    $0x1,%rax
  402174:	83 c2 01             	add    $0x1,%edx
  402177:	48 39 c8             	cmp    %rcx,%rax
  40217a:	74 20                	je     40219c <int_constant.isra.1+0xdc>
  40217c:	80 38 09             	cmpb   $0x9,(%rax)
  40217f:	75 ef                	jne    402170 <int_constant.isra.1+0xb0>
  402181:	8d 72 07             	lea    0x7(%rdx),%esi
  402184:	85 d2                	test   %edx,%edx
  402186:	0f 48 d6             	cmovs  %esi,%edx
  402189:	48 83 c0 01          	add    $0x1,%rax
  40218d:	c1 fa 03             	sar    $0x3,%edx
  402190:	48 39 c8             	cmp    %rcx,%rax
  402193:	8d 14 d5 08 00 00 00 	lea    0x8(,%rdx,8),%edx
  40219a:	75 e0                	jne    40217c <int_constant.isra.1+0xbc>
  40219c:	66 89 15 f1 b0 26 00 	mov    %dx,0x26b0f1(%rip)        # 66d294 <yylval+0x4>
  4021a3:	31 f6                	xor    %esi,%esi
  4021a5:	31 d2                	xor    %edx,%edx
  4021a7:	4c 89 f7             	mov    %r14,%rdi
  4021aa:	e8 91 ee ff ff       	callq  401040 <strtoul@plt>
  4021af:	48 89 c3             	mov    %rax,%rbx
  4021b2:	44 89 e0             	mov    %r12d,%eax
  4021b5:	44 09 e8             	or     %r13d,%eax
  4021b8:	75 0d                	jne    4021c7 <int_constant.isra.1+0x107>
  4021ba:	48 81 fb ff ff ff 7f 	cmp    $0x7fffffff,%rbx
  4021c1:	0f 86 e8 00 00 00    	jbe    4022af <int_constant.isra.1+0x1ef>
  4021c7:	b8 ff ff ff ff       	mov    $0xffffffff,%eax
  4021cc:	48 39 c3             	cmp    %rax,%rbx
  4021cf:	0f 86 0b 01 00 00    	jbe    4022e0 <int_constant.isra.1+0x220>
  4021d5:	41 83 fc 01          	cmp    $0x1,%r12d
  4021d9:	0f 94 c0             	sete   %al
  4021dc:	45 85 ed             	test   %r13d,%r13d
  4021df:	0f 84 8b 00 00 00    	je     402270 <int_constant.isra.1+0x1b0>
  4021e5:	84 c0                	test   %al,%al
  4021e7:	0f 85 94 00 00 00    	jne    402281 <int_constant.isra.1+0x1c1>
  4021ed:	41 83 fc 02          	cmp    $0x2,%r12d
  4021f1:	74 14                	je     402207 <int_constant.isra.1+0x147>
  4021f3:	ba db 6b 42 00       	mov    $0x426bdb,%edx
  4021f8:	be ed 02 00 00       	mov    $0x2ed,%esi
  4021fd:	bf 91 6b 42 00       	mov    $0x426b91,%edi
  402202:	e8 39 17 02 00       	callq  423940 <Fail>
  402207:	8b 05 87 9e 26 00    	mov    0x269e87(%rip),%eax        # 66c094 <ANSIOnly>
  40220d:	85 c0                	test   %eax,%eax
  40220f:	0f 85 0b 01 00 00    	jne    402320 <int_constant.isra.1+0x260>
  402215:	4c 89 f7             	mov    %r14,%rdi
  402218:	e8 d3 ba 01 00       	callq  41dcf0 <UniqueString>
  40221d:	48 8b 15 6c b0 26 00 	mov    0x26b06c(%rip),%rdx        # 66d290 <yylval>
  402224:	8b 0d 6e b0 26 00    	mov    0x26b06e(%rip),%ecx        # 66d298 <yylval+0x8>
  40222a:	48 89 de             	mov    %rbx,%rsi
  40222d:	48 89 c7             	mov    %rax,%rdi
  402230:	e8 fb a2 00 00       	callq  40c530 <MakeConstUlongTextCoord>
  402235:	45 85 ed             	test   %r13d,%r13d
  402238:	48 8b 3d c9 0e 27 00 	mov    0x270ec9(%rip),%rdi        # 673108 <PrimUlonglong>
  40223f:	48 8b 15 4a b0 26 00 	mov    0x26b04a(%rip),%rdx        # 66d290 <yylval>
  402246:	48 0f 44 3d 02 0f 27 	cmove  0x270f02(%rip),%rdi        # 673150 <PrimSlonglong>
  40224d:	00 
  40224e:	8b 0d 44 b0 26 00    	mov    0x26b044(%rip),%ecx        # 66d298 <yylval+0x8>
  402254:	48 83 c4 08          	add    $0x8,%rsp
  402258:	5b                   	pop    %rbx
  402259:	5d                   	pop    %rbp
  40225a:	41 5c                	pop    %r12
  40225c:	41 5d                	pop    %r13
  40225e:	41 5e                	pop    %r14
  402260:	41 5f                	pop    %r15
  402262:	48 89 c6             	mov    %rax,%rsi
  402265:	e9 16 af 00 00       	jmpq   40d180 <MakeImplicitCastCoord>
  40226a:	66 0f 1f 44 00 00    	nopw   0x0(%rax,%rax,1)
  402270:	84 c0                	test   %al,%al
  402272:	0f 84 75 ff ff ff    	je     4021ed <int_constant.isra.1+0x12d>
  402278:	48 85 db             	test   %rbx,%rbx
  40227b:	0f 89 bf 00 00 00    	jns    402340 <int_constant.isra.1+0x280>
  402281:	4c 89 f7             	mov    %r14,%rdi
  402284:	e8 67 ba 01 00       	callq  41dcf0 <UniqueString>
  402289:	48 8b 15 00 b0 26 00 	mov    0x26b000(%rip),%rdx        # 66d290 <yylval>
  402290:	8b 0d 02 b0 26 00    	mov    0x26b002(%rip),%ecx        # 66d298 <yylval+0x8>
  402296:	48 83 c4 08          	add    $0x8,%rsp
  40229a:	48 89 de             	mov    %rbx,%rsi
  40229d:	48 89 c7             	mov    %rax,%rdi
  4022a0:	5b                   	pop    %rbx
  4022a1:	5d                   	pop    %rbp
  4022a2:	41 5c                	pop    %r12
  4022a4:	41 5d                	pop    %r13
  4022a6:	41 5e                	pop    %r14
  4022a8:	41 5f                	pop    %r15
  4022aa:	e9 81 a2 00 00       	jmpq   40c530 <MakeConstUlongTextCoord>
  4022af:	4c 89 f7             	mov    %r14,%rdi
  4022b2:	e8 39 ba 01 00       	callq  41dcf0 <UniqueString>
  4022b7:	48 8b 15 d2 af 26 00 	mov    0x26afd2(%rip),%rdx        # 66d290 <yylval>
  4022be:	8b 0d d4 af 26 00    	mov    0x26afd4(%rip),%ecx        # 66d298 <yylval+0x8>
  4022c4:	48 83 c4 08          	add    $0x8,%rsp
  4022c8:	89 de                	mov    %ebx,%esi
  4022ca:	48 89 c7             	mov    %rax,%rdi
  4022cd:	5b                   	pop    %rbx
  4022ce:	5d                   	pop    %rbp
  4022cf:	41 5c                	pop    %r12
  4022d1:	41 5d                	pop    %r13
  4022d3:	41 5e                	pop    %r14
  4022d5:	41 5f                	pop    %r15
  4022d7:	e9 54 9f 00 00       	jmpq   40c230 <MakeConstSintTextCoord>
  4022dc:	0f 1f 40 00          	nopl   0x0(%rax)
  4022e0:	45 85 e4             	test   %r12d,%r12d
  4022e3:	0f 85 ec fe ff ff    	jne    4021d5 <int_constant.isra.1+0x115>
  4022e9:	4c 89 f7             	mov    %r14,%rdi
  4022ec:	e8 ff b9 01 00       	callq  41dcf0 <UniqueString>
  4022f1:	48 8b 15 98 af 26 00 	mov    0x26af98(%rip),%rdx        # 66d290 <yylval>
  4022f8:	8b 0d 9a af 26 00    	mov    0x26af9a(%rip),%ecx        # 66d298 <yylval+0x8>
  4022fe:	48 83 c4 08          	add    $0x8,%rsp
  402302:	89 de                	mov    %ebx,%esi
  402304:	48 89 c7             	mov    %rax,%rdi
  402307:	5b                   	pop    %rbx
  402308:	5d                   	pop    %rbp
  402309:	41 5c                	pop    %r12
  40230b:	41 5d                	pop    %r13
  40230d:	41 5e                	pop    %r14
  40230f:	41 5f                	pop    %r15
  402311:	e9 9a a0 00 00       	jmpq   40c3b0 <MakeConstUintTextCoord>
  402316:	66 2e 0f 1f 84 00 00 	nopw   %cs:0x0(%rax,%rax,1)
  40231d:	00 00 00 
  402320:	48 8b 3d 69 af 26 00 	mov    0x26af69(%rip),%rdi        # 66d290 <yylval>
  402327:	8b 35 6b af 26 00    	mov    0x26af6b(%rip),%esi        # 66d298 <yylval+0x8>
  40232d:	ba 68 6d 42 00       	mov    $0x426d68,%edx
  402332:	31 c0                	xor    %eax,%eax
  402334:	e8 77 18 02 00       	callq  423bb0 <SyntaxErrorCoord>
  402339:	e9 d7 fe ff ff       	jmpq   402215 <int_constant.isra.1+0x155>
  40233e:	66 90                	xchg   %ax,%ax
  402340:	4c 89 f7             	mov    %r14,%rdi
  402343:	e8 a8 b9 01 00       	callq  41dcf0 <UniqueString>
  402348:	48 8b 15 41 af 26 00 	mov    0x26af41(%rip),%rdx        # 66d290 <yylval>
  40234f:	8b 0d 43 af 26 00    	mov    0x26af43(%rip),%ecx        # 66d298 <yylval+0x8>
  402355:	48 83 c4 08          	add    $0x8,%rsp
  402359:	48 89 de             	mov    %rbx,%rsi
  40235c:	48 89 c7             	mov    %rax,%rdi
  40235f:	5b                   	pop    %rbx
  402360:	5d                   	pop    %rbp
  402361:	41 5c                	pop    %r12
  402363:	41 5d                	pop    %r13
  402365:	41 5e                	pop    %r14
  402367:	41 5f                	pop    %r15
  402369:	e9 02 a1 00 00       	jmpq   40c470 <MakeConstSlongTextCoord>
  40236e:	31 d2                	xor    %edx,%edx
  402370:	e9 27 fe ff ff       	jmpq   40219c <int_constant.isra.1+0xdc>
  402375:	66 66 2e 0f 1f 84 00 	data16 nopw %cs:0x0(%rax,%rax,1)
  40237c:	00 00 00 00 

0000000000402380 <yy_switch_to_buffer>:
  402380:	48 8b 05 61 93 26 00 	mov    0x269361(%rip),%rax        # 66b6e8 <yy_current_buffer>
  402387:	48 39 f8             	cmp    %rdi,%rax
  40238a:	74 61                	je     4023ed <yy_switch_to_buffer+0x6d>
  40238c:	48 85 c0             	test   %rax,%rax
  40238f:	74 1d                	je     4023ae <yy_switch_to_buffer+0x2e>
  402391:	0f b6 0d 4c 93 26 00 	movzbl 0x26934c(%rip),%ecx        # 66b6e4 <yy_hold_char>
  402398:	48 8b 15 39 93 26 00 	mov    0x269339(%rip),%rdx        # 66b6d8 <yy_c_buf_p>
  40239f:	88 0a                	mov    %cl,(%rdx)
  4023a1:	48 89 50 10          	mov    %rdx,0x10(%rax)
  4023a5:	8b 15 35 93 26 00    	mov    0x269335(%rip),%edx        # 66b6e0 <yy_n_chars>
  4023ab:	89 50 1c             	mov    %edx,0x1c(%rax)
  4023ae:	8b 47 1c             	mov    0x1c(%rdi),%eax
  4023b1:	48 8b 17             	mov    (%rdi),%rdx
  4023b4:	48 89 3d 2d 93 26 00 	mov    %rdi,0x26932d(%rip)        # 66b6e8 <yy_current_buffer>
  4023bb:	c7 05 07 93 26 00 01 	movl   $0x1,0x269307(%rip)        # 66b6cc <yy_did_buffer_switch_on_eof>
  4023c2:	00 00 00 
  4023c5:	89 05 15 93 26 00    	mov    %eax,0x269315(%rip)        # 66b6e0 <yy_n_chars>
  4023cb:	48 8b 47 10          	mov    0x10(%rdi),%rax
  4023cf:	48 89 15 d2 92 26 00 	mov    %rdx,0x2692d2(%rip)        # 66b6a8 <yyin>
  4023d6:	48 89 05 fb 92 26 00 	mov    %rax,0x2692fb(%rip)        # 66b6d8 <yy_c_buf_p>
  4023dd:	48 89 05 7c ae 26 00 	mov    %rax,0x26ae7c(%rip)        # 66d260 <yytext>
  4023e4:	0f b6 00             	movzbl (%rax),%eax
  4023e7:	88 05 f7 92 26 00    	mov    %al,0x2692f7(%rip)        # 66b6e4 <yy_hold_char>
  4023ed:	f3 c3                	repz retq 
  4023ef:	90                   	nop

00000000004023f0 <yy_load_buffer_state>:
  4023f0:	48 8b 15 f1 92 26 00 	mov    0x2692f1(%rip),%rdx        # 66b6e8 <yy_current_buffer>
  4023f7:	8b 42 1c             	mov    0x1c(%rdx),%eax
  4023fa:	89 05 e0 92 26 00    	mov    %eax,0x2692e0(%rip)        # 66b6e0 <yy_n_chars>
  402400:	48 8b 42 10          	mov    0x10(%rdx),%rax
  402404:	48 8b 12             	mov    (%rdx),%rdx
  402407:	48 89 05 ca 92 26 00 	mov    %rax,0x2692ca(%rip)        # 66b6d8 <yy_c_buf_p>
  40240e:	48 89 05 4b ae 26 00 	mov    %rax,0x26ae4b(%rip)        # 66d260 <yytext>
  402415:	48 89 15 8c 92 26 00 	mov    %rdx,0x26928c(%rip)        # 66b6a8 <yyin>
  40241c:	0f b6 00             	movzbl (%rax),%eax
  40241f:	88 05 bf 92 26 00    	mov    %al,0x2692bf(%rip)        # 66b6e4 <yy_hold_char>
  402425:	c3                   	retq   
  402426:	66 2e 0f 1f 84 00 00 	nopw   %cs:0x0(%rax,%rax,1)
  40242d:	00 00 00 

0000000000402430 <yy_delete_buffer>:
  402430:	48 85 ff             	test   %rdi,%rdi
  402433:	53                   	push   %rbx
  402434:	48 89 fb             	mov    %rdi,%rbx
  402437:	74 47                	je     402480 <yy_delete_buffer+0x50>
  402439:	48 3b 3d a8 92 26 00 	cmp    0x2692a8(%rip),%rdi        # 66b6e8 <yy_current_buffer>
  402440:	74 2e                	je     402470 <yy_delete_buffer+0x40>
  402442:	8b 53 20             	mov    0x20(%rbx),%edx
  402445:	85 d2                	test   %edx,%edx
  402447:	75 0f                	jne    402458 <yy_delete_buffer+0x28>
  402449:	48 89 df             	mov    %rbx,%rdi
  40244c:	5b                   	pop    %rbx
  40244d:	e9 de e9 ff ff       	jmpq   400e30 <free@plt>
  402452:	66 0f 1f 44 00 00    	nopw   0x0(%rax,%rax,1)
  402458:	48 8b 7b 08          	mov    0x8(%rbx),%rdi
  40245c:	e8 cf e9 ff ff       	callq  400e30 <free@plt>
  402461:	48 89 df             	mov    %rbx,%rdi
  402464:	5b                   	pop    %rbx
  402465:	e9 c6 e9 ff ff       	jmpq   400e30 <free@plt>
  40246a:	66 0f 1f 44 00 00    	nopw   0x0(%rax,%rax,1)
  402470:	48 c7 05 6d 92 26 00 	movq   $0x0,0x26926d(%rip)        # 66b6e8 <yy_current_buffer>
  402477:	00 00 00 00 
  40247b:	eb c5                	jmp    402442 <yy_delete_buffer+0x12>
  40247d:	0f 1f 00             	nopl   (%rax)
  402480:	5b                   	pop    %rbx
  402481:	c3                   	retq   
  402482:	66 66 66 66 66 2e 0f 	data16 data16 data16 data16 nopw %cs:0x0(%rax,%rax,1)
  402489:	1f 84 00 00 00 00 00 

0000000000402490 <yy_flush_buffer>:
  402490:	48 85 ff             	test   %rdi,%rdi
  402493:	74 35                	je     4024ca <yy_flush_buffer+0x3a>
  402495:	48 8b 47 08          	mov    0x8(%rdi),%rax
  402499:	c7 47 1c 00 00 00 00 	movl   $0x0,0x1c(%rdi)
  4024a0:	48 3b 3d 41 92 26 00 	cmp    0x269241(%rip),%rdi        # 66b6e8 <yy_current_buffer>
  4024a7:	c6 00 00             	movb   $0x0,(%rax)
  4024aa:	48 8b 47 08          	mov    0x8(%rdi),%rax
  4024ae:	c6 40 01 00          	movb   $0x0,0x1(%rax)
  4024b2:	48 8b 47 08          	mov    0x8(%rdi),%rax
  4024b6:	c7 47 28 01 00 00 00 	movl   $0x1,0x28(%rdi)
  4024bd:	c7 47 30 00 00 00 00 	movl   $0x0,0x30(%rdi)
  4024c4:	48 89 47 10          	mov    %rax,0x10(%rdi)
  4024c8:	74 06                	je     4024d0 <yy_flush_buffer+0x40>
  4024ca:	f3 c3                	repz retq 
  4024cc:	0f 1f 40 00          	nopl   0x0(%rax)
  4024d0:	8b 57 1c             	mov    0x1c(%rdi),%edx
  4024d3:	48 89 05 fe 91 26 00 	mov    %rax,0x2691fe(%rip)        # 66b6d8 <yy_c_buf_p>
  4024da:	48 89 05 7f ad 26 00 	mov    %rax,0x26ad7f(%rip)        # 66d260 <yytext>
  4024e1:	89 15 f9 91 26 00    	mov    %edx,0x2691f9(%rip)        # 66b6e0 <yy_n_chars>
  4024e7:	48 8b 17             	mov    (%rdi),%rdx
  4024ea:	48 89 15 b7 91 26 00 	mov    %rdx,0x2691b7(%rip)        # 66b6a8 <yyin>
  4024f1:	0f b6 00             	movzbl (%rax),%eax
  4024f4:	88 05 ea 91 26 00    	mov    %al,0x2691ea(%rip)        # 66b6e4 <yy_hold_char>
  4024fa:	c3                   	retq   
  4024fb:	0f 1f 44 00 00       	nopl   0x0(%rax,%rax,1)

0000000000402500 <yy_init_buffer>:
  402500:	55                   	push   %rbp
  402501:	48 89 f5             	mov    %rsi,%rbp
  402504:	53                   	push   %rbx
  402505:	48 89 fb             	mov    %rdi,%rbx
  402508:	48 83 ec 08          	sub    $0x8,%rsp
  40250c:	e8 7f ff ff ff       	callq  402490 <yy_flush_buffer>
  402511:	31 c0                	xor    %eax,%eax
  402513:	48 85 ed             	test   %rbp,%rbp
  402516:	48 89 2b             	mov    %rbp,(%rbx)
  402519:	c7 43 2c 01 00 00 00 	movl   $0x1,0x2c(%rbx)
  402520:	74 17                	je     402539 <yy_init_buffer+0x39>
  402522:	48 89 ef             	mov    %rbp,%rdi
  402525:	e8 86 ea ff ff       	callq  400fb0 <fileno@plt>
  40252a:	89 c7                	mov    %eax,%edi
  40252c:	e8 6f e9 ff ff       	callq  400ea0 <isatty@plt>
  402531:	85 c0                	test   %eax,%eax
  402533:	0f 9f c0             	setg   %al
  402536:	0f b6 c0             	movzbl %al,%eax
  402539:	89 43 24             	mov    %eax,0x24(%rbx)
  40253c:	48 83 c4 08          	add    $0x8,%rsp
  402540:	5b                   	pop    %rbx
  402541:	5d                   	pop    %rbp
  402542:	c3                   	retq   
  402543:	66 66 66 66 2e 0f 1f 	data16 data16 data16 nopw %cs:0x0(%rax,%rax,1)
  40254a:	84 00 00 00 00 00 

0000000000402550 <yy_create_buffer>:
  402550:	41 54                	push   %r12
  402552:	49 89 fc             	mov    %rdi,%r12
  402555:	bf 38 00 00 00       	mov    $0x38,%edi
  40255a:	55                   	push   %rbp
  40255b:	89 f5                	mov    %esi,%ebp
  40255d:	53                   	push   %rbx
  40255e:	e8 5d ea ff ff       	callq  400fc0 <malloc@plt>
  402563:	48 85 c0             	test   %rax,%rax
  402566:	48 89 c3             	mov    %rax,%rbx
  402569:	74 2e                	je     402599 <yy_create_buffer+0x49>
  40256b:	8d 7d 02             	lea    0x2(%rbp),%edi
  40256e:	89 68 18             	mov    %ebp,0x18(%rax)
  402571:	e8 4a ea ff ff       	callq  400fc0 <malloc@plt>
  402576:	48 85 c0             	test   %rax,%rax
  402579:	48 89 43 08          	mov    %rax,0x8(%rbx)
  40257d:	74 1a                	je     402599 <yy_create_buffer+0x49>
  40257f:	4c 89 e6             	mov    %r12,%rsi
  402582:	48 89 df             	mov    %rbx,%rdi
  402585:	c7 43 20 01 00 00 00 	movl   $0x1,0x20(%rbx)
  40258c:	e8 6f ff ff ff       	callq  402500 <yy_init_buffer>
  402591:	48 89 d8             	mov    %rbx,%rax
  402594:	5b                   	pop    %rbx
  402595:	5d                   	pop    %rbp
  402596:	41 5c                	pop    %r12
  402598:	c3                   	retq   
  402599:	bf a0 6d 42 00       	mov    $0x426da0,%edi
  40259e:	e8 8d f9 ff ff       	callq  401f30 <yy_fatal_error>
  4025a3:	66 66 66 66 2e 0f 1f 	data16 data16 data16 nopw %cs:0x0(%rax,%rax,1)
  4025aa:	84 00 00 00 00 00 

00000000004025b0 <yyrestart>:
  4025b0:	55                   	push   %rbp
  4025b1:	48 89 fd             	mov    %rdi,%rbp
  4025b4:	53                   	push   %rbx
  4025b5:	48 83 ec 08          	sub    $0x8,%rsp
  4025b9:	48 8b 1d 28 91 26 00 	mov    0x269128(%rip),%rbx        # 66b6e8 <yy_current_buffer>
  4025c0:	48 85 db             	test   %rbx,%rbx
  4025c3:	74 43                	je     402608 <yyrestart+0x58>
  4025c5:	48 89 ee             	mov    %rbp,%rsi
  4025c8:	48 89 df             	mov    %rbx,%rdi
  4025cb:	e8 30 ff ff ff       	callq  402500 <yy_init_buffer>
  4025d0:	8b 43 1c             	mov    0x1c(%rbx),%eax
  4025d3:	48 8b 13             	mov    (%rbx),%rdx
  4025d6:	89 05 04 91 26 00    	mov    %eax,0x269104(%rip)        # 66b6e0 <yy_n_chars>
  4025dc:	48 8b 43 10          	mov    0x10(%rbx),%rax
  4025e0:	48 89 15 c1 90 26 00 	mov    %rdx,0x2690c1(%rip)        # 66b6a8 <yyin>
  4025e7:	48 89 05 ea 90 26 00 	mov    %rax,0x2690ea(%rip)        # 66b6d8 <yy_c_buf_p>
  4025ee:	48 89 05 6b ac 26 00 	mov    %rax,0x26ac6b(%rip)        # 66d260 <yytext>
  4025f5:	0f b6 00             	movzbl (%rax),%eax
  4025f8:	88 05 e6 90 26 00    	mov    %al,0x2690e6(%rip)        # 66b6e4 <yy_hold_char>
  4025fe:	48 83 c4 08          	add    $0x8,%rsp
  402602:	5b                   	pop    %rbx
  402603:	5d                   	pop    %rbp
  402604:	c3                   	retq   
  402605:	0f 1f 00             	nopl   (%rax)
  402608:	48 8b 3d 99 90 26 00 	mov    0x269099(%rip),%rdi        # 66b6a8 <yyin>
  40260f:	be 00 40 00 00       	mov    $0x4000,%esi
  402614:	e8 37 ff ff ff       	callq  402550 <yy_create_buffer>
  402619:	48 89 05 c8 90 26 00 	mov    %rax,0x2690c8(%rip)        # 66b6e8 <yy_current_buffer>
  402620:	48 89 c3             	mov    %rax,%rbx
  402623:	eb a0                	jmp    4025c5 <yyrestart+0x15>
  402625:	66 66 2e 0f 1f 84 00 	data16 nopw %cs:0x0(%rax,%rax,1)
  40262c:	00 00 00 00 

0000000000402630 <yy_scan_buffer>:
  402630:	83 fe 01             	cmp    $0x1,%esi
  402633:	0f 86 87 00 00 00    	jbe    4026c0 <yy_scan_buffer+0x90>
  402639:	41 54                	push   %r12
  40263b:	44 8d 66 fe          	lea    -0x2(%rsi),%r12d
  40263f:	55                   	push   %rbp
  402640:	44 89 e0             	mov    %r12d,%eax
  402643:	48 89 fd             	mov    %rdi,%rbp
  402646:	53                   	push   %rbx
  402647:	80 3c 07 00          	cmpb   $0x0,(%rdi,%rax,1)
  40264b:	75 6b                	jne    4026b8 <yy_scan_buffer+0x88>
  40264d:	83 ee 01             	sub    $0x1,%esi
  402650:	80 3c 37 00          	cmpb   $0x0,(%rdi,%rsi,1)
  402654:	75 62                	jne    4026b8 <yy_scan_buffer+0x88>
  402656:	bf 38 00 00 00       	mov    $0x38,%edi
  40265b:	e8 60 e9 ff ff       	callq  400fc0 <malloc@plt>
  402660:	48 85 c0             	test   %rax,%rax
  402663:	48 89 c3             	mov    %rax,%rbx
  402666:	74 5b                	je     4026c3 <yy_scan_buffer+0x93>
  402668:	44 89 60 18          	mov    %r12d,0x18(%rax)
  40266c:	48 89 68 08          	mov    %rbp,0x8(%rax)
  402670:	48 89 c7             	mov    %rax,%rdi
  402673:	48 89 68 10          	mov    %rbp,0x10(%rax)
  402677:	44 89 60 1c          	mov    %r12d,0x1c(%rax)
  40267b:	c7 40 20 00 00 00 00 	movl   $0x0,0x20(%rax)
  402682:	48 c7 00 00 00 00 00 	movq   $0x0,(%rax)
  402689:	c7 40 24 00 00 00 00 	movl   $0x0,0x24(%rax)
  402690:	c7 40 28 01 00 00 00 	movl   $0x1,0x28(%rax)
  402697:	c7 40 2c 00 00 00 00 	movl   $0x0,0x2c(%rax)
  40269e:	c7 40 30 00 00 00 00 	movl   $0x0,0x30(%rax)
  4026a5:	e8 d6 fc ff ff       	callq  402380 <yy_switch_to_buffer>
  4026aa:	48 89 d8             	mov    %rbx,%rax
  4026ad:	5b                   	pop    %rbx
  4026ae:	5d                   	pop    %rbp
  4026af:	41 5c                	pop    %r12
  4026b1:	c3                   	retq   
  4026b2:	66 0f 1f 44 00 00    	nopw   0x0(%rax,%rax,1)
  4026b8:	5b                   	pop    %rbx
  4026b9:	5d                   	pop    %rbp
  4026ba:	31 c0                	xor    %eax,%eax
  4026bc:	41 5c                	pop    %r12
  4026be:	c3                   	retq   
  4026bf:	90                   	nop
  4026c0:	31 c0                	xor    %eax,%eax
  4026c2:	c3                   	retq   
  4026c3:	bf d0 6d 42 00       	mov    $0x426dd0,%edi
  4026c8:	e8 63 f8 ff ff       	callq  401f30 <yy_fatal_error>
  4026cd:	0f 1f 00             	nopl   (%rax)

00000000004026d0 <yy_scan_bytes>:
  4026d0:	41 54                	push   %r12
  4026d2:	55                   	push   %rbp
  4026d3:	48 89 fd             	mov    %rdi,%rbp
  4026d6:	53                   	push   %rbx
  4026d7:	48 63 de             	movslq %esi,%rbx
  4026da:	44 8d 63 02          	lea    0x2(%rbx),%r12d
  4026de:	44 89 e7             	mov    %r12d,%edi
  4026e1:	e8 da e8 ff ff       	callq  400fc0 <malloc@plt>
  4026e6:	48 85 c0             	test   %rax,%rax
  4026e9:	74 42                	je     40272d <yy_scan_bytes+0x5d>
  4026eb:	31 d2                	xor    %edx,%edx
  4026ed:	85 db                	test   %ebx,%ebx
  4026ef:	7e 17                	jle    402708 <yy_scan_bytes+0x38>
  4026f1:	0f 1f 80 00 00 00 00 	nopl   0x0(%rax)
  4026f8:	0f b6 4c 15 00       	movzbl 0x0(%rbp,%rdx,1),%ecx
  4026fd:	88 0c 10             	mov    %cl,(%rax,%rdx,1)
  402700:	48 83 c2 01          	add    $0x1,%rdx
  402704:	39 d3                	cmp    %edx,%ebx
  402706:	7f f0                	jg     4026f8 <yy_scan_bytes+0x28>
  402708:	c6 44 18 01 00       	movb   $0x0,0x1(%rax,%rbx,1)
  40270d:	c6 04 18 00          	movb   $0x0,(%rax,%rbx,1)
  402711:	44 89 e6             	mov    %r12d,%esi
  402714:	48 89 c7             	mov    %rax,%rdi
  402717:	e8 14 ff ff ff       	callq  402630 <yy_scan_buffer>
  40271c:	48 85 c0             	test   %rax,%rax
  40271f:	74 16                	je     402737 <yy_scan_bytes+0x67>
  402721:	c7 40 20 01 00 00 00 	movl   $0x1,0x20(%rax)
  402728:	5b                   	pop    %rbx
  402729:	5d                   	pop    %rbp
  40272a:	41 5c                	pop    %r12
  40272c:	c3                   	retq   
  40272d:	bf 00 6e 42 00       	mov    $0x426e00,%edi
  402732:	e8 f9 f7 ff ff       	callq  401f30 <yy_fatal_error>
  402737:	bf e7 6b 42 00       	mov    $0x426be7,%edi
  40273c:	e8 ef f7 ff ff       	callq  401f30 <yy_fatal_error>
  402741:	66 66 66 66 66 66 2e 	data16 data16 data16 data16 data16 nopw %cs:0x0(%rax,%rax,1)
  402748:	0f 1f 84 00 00 00 00 
  40274f:	00 

0000000000402750 <yy_scan_string>:
  402750:	80 3f 00             	cmpb   $0x0,(%rdi)
  402753:	74 1d                	je     402772 <yy_scan_string+0x22>
  402755:	48 8d 47 01          	lea    0x1(%rdi),%rax
  402759:	31 f6                	xor    %esi,%esi
  40275b:	0f 1f 44 00 00       	nopl   0x0(%rax,%rax,1)
  402760:	48 83 c0 01          	add    $0x1,%rax
  402764:	83 c6 01             	add    $0x1,%esi
  402767:	80 78 ff 00          	cmpb   $0x0,-0x1(%rax)
  40276b:	75 f3                	jne    402760 <yy_scan_string+0x10>
  40276d:	e9 5e ff ff ff       	jmpq   4026d0 <yy_scan_bytes>
  402772:	31 f6                	xor    %esi,%esi
  402774:	eb f7                	jmp    40276d <yy_scan_string+0x1d>
  402776:	66 2e 0f 1f 84 00 00 	nopw   %cs:0x0(%rax,%rax,1)
  40277d:	00 00 00 

0000000000402780 <SetFile>:
  402780:	41 55                	push   %r13
  402782:	41 54                	push   %r12
  402784:	55                   	push   %rbp
  402785:	89 f5                	mov    %esi,%ebp
  402787:	53                   	push   %rbx
  402788:	48 89 fb             	mov    %rdi,%rbx
  40278b:	48 83 ec 08          	sub    $0x8,%rsp
  40278f:	e8 5c b5 01 00       	callq  41dcf0 <UniqueString>
  402794:	44 8b 0d e5 f9 23 00 	mov    0x23f9e5(%rip),%r9d        # 642180 <known_files>
  40279b:	45 85 c9             	test   %r9d,%r9d
  40279e:	0f 84 09 01 00 00    	je     4028ad <SetFile+0x12d>
  4027a4:	48 39 05 f5 f9 23 00 	cmp    %rax,0x23f9f5(%rip)        # 6421a0 <FileNames>
  4027ab:	0f 84 05 01 00 00    	je     4028b6 <SetFile+0x136>
  4027b1:	41 b8 a8 21 64 00    	mov    $0x6421a8,%r8d
  4027b7:	31 c9                	xor    %ecx,%ecx
  4027b9:	eb 0f                	jmp    4027ca <SetFile+0x4a>
  4027bb:	0f 1f 44 00 00       	nopl   0x0(%rax,%rax,1)
  4027c0:	49 83 c0 08          	add    $0x8,%r8
  4027c4:	49 39 40 f8          	cmp    %rax,-0x8(%r8)
  4027c8:	74 08                	je     4027d2 <SetFile+0x52>
  4027ca:	83 c1 01             	add    $0x1,%ecx
  4027cd:	44 39 c9             	cmp    %r9d,%ecx
  4027d0:	75 ee                	jne    4027c0 <SetFile+0x40>
  4027d2:	44 39 c9             	cmp    %r9d,%ecx
  4027d5:	0f 84 9d 00 00 00    	je     402878 <SetFile+0xf8>
  4027db:	83 f9 01             	cmp    $0x1,%ecx
  4027de:	41 89 cc             	mov    %ecx,%r12d
  4027e1:	0f 9f c2             	setg   %dl
  4027e4:	83 fd 01             	cmp    $0x1,%ebp
  4027e7:	48 63 e9             	movslq %ecx,%rbp
  4027ea:	0f 94 c0             	sete   %al
  4027ed:	21 c2                	and    %eax,%edx
  4027ef:	84 d2                	test   %dl,%dl
  4027f1:	74 77                	je     40286a <SetFile+0xea>
  4027f3:	48 89 df             	mov    %rbx,%rdi
  4027f6:	e8 65 f7 ff ff       	callq  401f60 <HasSuffix.constprop.2>
  4027fb:	8b 15 83 8a 26 00    	mov    0x268a83(%rip),%edx        # 66b284 <CurrentIncludedp>
  402801:	09 d0                	or     %edx,%eax
  402803:	85 d2                	test   %edx,%edx
  402805:	89 04 ad a0 b2 66 00 	mov    %eax,0x66b2a0(,%rbp,4)
  40280c:	41 89 c5             	mov    %eax,%r13d
  40280f:	74 0c                	je     40281d <SetFile+0x9d>
  402811:	48 89 df             	mov    %rbx,%rdi
  402814:	e8 47 f7 ff ff       	callq  401f60 <HasSuffix.constprop.2>
  402819:	85 c0                	test   %eax,%eax
  40281b:	74 2b                	je     402848 <SetFile+0xc8>
  40281d:	48 8b 04 ed a0 21 64 	mov    0x6421a0(,%rbp,8),%rax
  402824:	00 
  402825:	44 89 25 54 8a 26 00 	mov    %r12d,0x268a54(%rip)        # 66b280 <CurrentFile>
  40282c:	44 89 2d 51 8a 26 00 	mov    %r13d,0x268a51(%rip)        # 66b284 <CurrentIncludedp>
  402833:	48 89 05 36 aa 26 00 	mov    %rax,0x26aa36(%rip)        # 66d270 <Filename>
  40283a:	48 83 c4 08          	add    $0x8,%rsp
  40283e:	5b                   	pop    %rbx
  40283f:	5d                   	pop    %rbp
  402840:	41 5c                	pop    %r12
  402842:	41 5d                	pop    %r13
  402844:	c3                   	retq   
  402845:	0f 1f 00             	nopl   (%rax)
  402848:	8b 05 32 8a 26 00    	mov    0x268a32(%rip),%eax        # 66b280 <CurrentFile>
  40284e:	48 89 da             	mov    %rbx,%rdx
  402851:	be 30 6e 42 00       	mov    $0x426e30,%esi
  402856:	bf 01 00 00 00       	mov    $0x1,%edi
  40285b:	48 8b 0c c5 a0 21 64 	mov    0x6421a0(,%rax,8),%rcx
  402862:	00 
  402863:	31 c0                	xor    %eax,%eax
  402865:	e8 46 12 02 00       	callq  423ab0 <Warning>
  40286a:	44 8b 2c ad a0 b2 66 	mov    0x66b2a0(,%rbp,4),%r13d
  402871:	00 
  402872:	eb a9                	jmp    40281d <SetFile+0x9d>
  402874:	0f 1f 40 00          	nopl   0x0(%rax)
  402878:	81 f9 00 01 00 00    	cmp    $0x100,%ecx
  40287e:	74 3d                	je     4028bd <SetFile+0x13d>
  402880:	83 f9 01             	cmp    $0x1,%ecx
  402883:	41 89 cc             	mov    %ecx,%r12d
  402886:	0f 9f c2             	setg   %dl
  402889:	83 fd 01             	cmp    $0x1,%ebp
  40288c:	40 0f 94 c6          	sete   %sil
  402890:	21 f2                	and    %esi,%edx
  402892:	48 63 e9             	movslq %ecx,%rbp
  402895:	41 83 c1 01          	add    $0x1,%r9d
  402899:	48 89 04 ed a0 21 64 	mov    %rax,0x6421a0(,%rbp,8)
  4028a0:	00 
  4028a1:	44 89 0d d8 f8 23 00 	mov    %r9d,0x23f8d8(%rip)        # 642180 <known_files>
  4028a8:	e9 42 ff ff ff       	jmpq   4027ef <SetFile+0x6f>
  4028ad:	45 31 e4             	xor    %r12d,%r12d
  4028b0:	31 d2                	xor    %edx,%edx
  4028b2:	31 c9                	xor    %ecx,%ecx
  4028b4:	eb dc                	jmp    402892 <SetFile+0x112>
  4028b6:	45 31 e4             	xor    %r12d,%r12d
  4028b9:	31 ed                	xor    %ebp,%ebp
  4028bb:	eb ad                	jmp    40286a <SetFile+0xea>
  4028bd:	31 c0                	xor    %eax,%eax
  4028bf:	be 05 6c 42 00       	mov    $0x426c05,%esi
  4028c4:	bf 01 00 00 00       	mov    $0x1,%edi
  4028c9:	e8 e2 11 02 00       	callq  423ab0 <Warning>
  4028ce:	48 8b 0d 9b 89 26 00 	mov    0x26899b(%rip),%rcx        # 66b270 <stderr@@GLIBC_2.2.5>
  4028d5:	ba 1b 00 00 00       	mov    $0x1b,%edx
  4028da:	be 01 00 00 00       	mov    $0x1,%esi
  4028df:	bf 15 6c 42 00       	mov    $0x426c15,%edi
  4028e4:	e8 87 e7 ff ff       	callq  401070 <fwrite@plt>
  4028e9:	8b 0d 91 89 26 00    	mov    0x268991(%rip),%ecx        # 66b280 <CurrentFile>
  4028ef:	83 fd 01             	cmp    $0x1,%ebp
  4028f2:	0f 94 c2             	sete   %dl
  4028f5:	83 f9 01             	cmp    $0x1,%ecx
  4028f8:	41 89 cc             	mov    %ecx,%r12d
  4028fb:	48 63 e9             	movslq %ecx,%rbp
  4028fe:	0f 9f c0             	setg   %al
  402901:	21 c2                	and    %eax,%edx
  402903:	e9 e7 fe ff ff       	jmpq   4027ef <SetFile+0x6f>
  402908:	0f 1f 84 00 00 00 00 	nopl   0x0(%rax,%rax,1)
  40290f:	00 

0000000000402910 <parse_line_directive>:
  402910:	41 54                	push   %r12
  402912:	55                   	push   %rbp
  402913:	48 89 fd             	mov    %rdi,%rbp
  402916:	53                   	push   %rbx
  402917:	48 81 ec c0 01 00 00 	sub    $0x1c0,%rsp
  40291e:	64 48 8b 04 25 28 00 	mov    %fs:0x28,%rax
  402925:	00 00 
  402927:	48 89 84 24 b8 01 00 	mov    %rax,0x1b8(%rsp)
  40292e:	00 
  40292f:	31 c0                	xor    %eax,%eax
  402931:	0f b6 07             	movzbl (%rdi),%eax
  402934:	3c 23                	cmp    $0x23,%al
  402936:	75 14                	jne    40294c <parse_line_directive+0x3c>
  402938:	eb 16                	jmp    402950 <parse_line_directive+0x40>
  40293a:	66 0f 1f 44 00 00    	nopw   0x0(%rax,%rax,1)
  402940:	48 83 c5 01          	add    $0x1,%rbp
  402944:	0f b6 45 00          	movzbl 0x0(%rbp),%eax
  402948:	3c 23                	cmp    $0x23,%al
  40294a:	74 04                	je     402950 <parse_line_directive+0x40>
  40294c:	3c 0a                	cmp    $0xa,%al
  40294e:	75 f0                	jne    402940 <parse_line_directive+0x30>
  402950:	3c 0a                	cmp    $0xa,%al
  402952:	0f 84 e8 02 00 00    	je     402c40 <parse_line_directive+0x330>
  402958:	0f b6 45 01          	movzbl 0x1(%rbp),%eax
  40295c:	48 8d 5d 01          	lea    0x1(%rbp),%rbx
  402960:	3c 0a                	cmp    $0xa,%al
  402962:	75 17                	jne    40297b <parse_line_directive+0x6b>
  402964:	eb 2a                	jmp    402990 <parse_line_directive+0x80>
  402966:	66 2e 0f 1f 84 00 00 	nopw   %cs:0x0(%rax,%rax,1)
  40296d:	00 00 00 
  402970:	48 83 c3 01          	add    $0x1,%rbx
  402974:	0f b6 03             	movzbl (%rbx),%eax
  402977:	3c 0a                	cmp    $0xa,%al
  402979:	74 15                	je     402990 <parse_line_directive+0x80>
  40297b:	3c 09                	cmp    $0x9,%al
  40297d:	74 f1                	je     402970 <parse_line_directive+0x60>
  40297f:	3c 20                	cmp    $0x20,%al
  402981:	75 21                	jne    4029a4 <parse_line_directive+0x94>
  402983:	48 83 c3 01          	add    $0x1,%rbx
  402987:	0f b6 03             	movzbl (%rbx),%eax
  40298a:	3c 0a                	cmp    $0xa,%al
  40298c:	75 ed                	jne    40297b <parse_line_directive+0x6b>
  40298e:	66 90                	xchg   %ax,%ax
  402990:	ba 31 6c 42 00       	mov    $0x426c31,%edx
  402995:	be 6f 03 00 00       	mov    $0x36f,%esi
  40299a:	bf 91 6b 42 00       	mov    $0x426b91,%edi
  40299f:	e8 9c 0f 02 00       	callq  423940 <Fail>
  4029a4:	bf 3c 6c 42 00       	mov    $0x426c3c,%edi
  4029a9:	b9 04 00 00 00       	mov    $0x4,%ecx
  4029ae:	48 89 de             	mov    %rbx,%rsi
  4029b1:	f3 a6                	repz cmpsb %es:(%rdi),%ds:(%rsi)
  4029b3:	75 7b                	jne    402a30 <parse_line_directive+0x120>
  4029b5:	0f be 6b 04          	movsbl 0x4(%rbx),%ebp
  4029b9:	4c 8d 63 04          	lea    0x4(%rbx),%r12
  4029bd:	40 80 fd 09          	cmp    $0x9,%bpl
  4029c1:	74 40                	je     402a03 <parse_line_directive+0xf3>
  4029c3:	40 80 fd 20          	cmp    $0x20,%bpl
  4029c7:	74 3a                	je     402a03 <parse_line_directive+0xf3>
  4029c9:	ba 41 6c 42 00       	mov    $0x426c41,%edx
  4029ce:	be 76 03 00 00       	mov    $0x376,%esi
  4029d3:	bf 91 6b 42 00       	mov    $0x426b91,%edi
  4029d8:	e8 63 0f 02 00       	callq  423940 <Fail>
  4029dd:	0f be 6b 04          	movsbl 0x4(%rbx),%ebp
  4029e1:	40 80 fd 0a          	cmp    $0xa,%bpl
  4029e5:	74 22                	je     402a09 <parse_line_directive+0xf9>
  4029e7:	66 0f 1f 84 00 00 00 	nopw   0x0(%rax,%rax,1)
  4029ee:	00 00 
  4029f0:	40 80 fd 09          	cmp    $0x9,%bpl
  4029f4:	0f 85 0e 02 00 00    	jne    402c08 <parse_line_directive+0x2f8>
  4029fa:	49 83 c4 01          	add    $0x1,%r12
  4029fe:	41 0f be 2c 24       	movsbl (%r12),%ebp
  402a03:	40 80 fd 0a          	cmp    $0xa,%bpl
  402a07:	75 e7                	jne    4029f0 <parse_line_directive+0xe0>
  402a09:	ba 31 6c 42 00       	mov    $0x426c31,%edx
  402a0e:	be 79 03 00 00       	mov    $0x379,%esi
  402a13:	bf 91 6b 42 00       	mov    $0x426b91,%edi
  402a18:	e8 23 0f 02 00       	callq  423940 <Fail>
  402a1d:	4c 89 e3             	mov    %r12,%rbx
  402a20:	41 0f be 2c 24       	movsbl (%r12),%ebp
  402a25:	eb 0c                	jmp    402a33 <parse_line_directive+0x123>
  402a27:	66 0f 1f 84 00 00 00 	nopw   0x0(%rax,%rax,1)
  402a2e:	00 00 
  402a30:	0f be 2b             	movsbl (%rbx),%ebp
  402a33:	e8 58 e6 ff ff       	callq  401090 <__ctype_b_loc@plt>
  402a38:	48 8b 10             	mov    (%rax),%rdx
  402a3b:	48 0f be c5          	movsbq %bpl,%rax
  402a3f:	f6 44 42 01 08       	testb  $0x8,0x1(%rdx,%rax,2)
  402a44:	0f 84 d6 01 00 00    	je     402c20 <parse_line_directive+0x310>
  402a4a:	40 84 ed             	test   %bpl,%bpl
  402a4d:	74 29                	je     402a78 <parse_line_directive+0x168>
  402a4f:	45 31 e4             	xor    %r12d,%r12d
  402a52:	eb 0f                	jmp    402a63 <parse_line_directive+0x153>
  402a54:	0f 1f 40 00          	nopl   0x0(%rax)
  402a58:	48 0f be c5          	movsbq %bpl,%rax
  402a5c:	f6 44 42 01 08       	testb  $0x8,0x1(%rdx,%rax,2)
  402a61:	74 3a                	je     402a9d <parse_line_directive+0x18d>
  402a63:	43 8d 04 a4          	lea    (%r12,%r12,4),%eax
  402a67:	48 83 c3 01          	add    $0x1,%rbx
  402a6b:	44 8d 64 45 d0       	lea    -0x30(%rbp,%rax,2),%r12d
  402a70:	0f be 2b             	movsbl (%rbx),%ebp
  402a73:	40 84 ed             	test   %bpl,%bpl
  402a76:	75 e0                	jne    402a58 <parse_line_directive+0x148>
  402a78:	bf 98 6e 42 00       	mov    $0x426e98,%edi
  402a7d:	31 c0                	xor    %eax,%eax
  402a7f:	e8 3c 0f 02 00       	callq  4239c0 <SyntaxError>
  402a84:	83 05 41 ff 23 00 01 	addl   $0x1,0x23ff41(%rip)        # 6429cc <Line>
  402a8b:	eb 27                	jmp    402ab4 <parse_line_directive+0x1a4>
  402a8d:	0f 1f 00             	nopl   (%rax)
  402a90:	40 80 fd 09          	cmp    $0x9,%bpl
  402a94:	75 5a                	jne    402af0 <parse_line_directive+0x1e0>
  402a96:	48 83 c3 01          	add    $0x1,%rbx
  402a9a:	0f b6 2b             	movzbl (%rbx),%ebp
  402a9d:	40 80 fd 0a          	cmp    $0xa,%bpl
  402aa1:	75 ed                	jne    402a90 <parse_line_directive+0x180>
  402aa3:	8b 05 ef 95 26 00    	mov    0x2695ef(%rip),%eax        # 66c098 <IgnoreLineDirectives>
  402aa9:	85 c0                	test   %eax,%eax
  402aab:	75 33                	jne    402ae0 <parse_line_directive+0x1d0>
  402aad:	44 89 25 18 ff 23 00 	mov    %r12d,0x23ff18(%rip)        # 6429cc <Line>
  402ab4:	48 8b 84 24 b8 01 00 	mov    0x1b8(%rsp),%rax
  402abb:	00 
  402abc:	64 48 33 04 25 28 00 	xor    %fs:0x28,%rax
  402ac3:	00 00 
  402ac5:	0f 85 5a 02 00 00    	jne    402d25 <parse_line_directive+0x415>
  402acb:	48 81 c4 c0 01 00 00 	add    $0x1c0,%rsp
  402ad2:	5b                   	pop    %rbx
  402ad3:	5d                   	pop    %rbp
  402ad4:	41 5c                	pop    %r12
  402ad6:	c3                   	retq   
  402ad7:	66 0f 1f 84 00 00 00 	nopw   0x0(%rax,%rax,1)
  402ade:	00 00 
  402ae0:	83 05 e5 fe 23 00 01 	addl   $0x1,0x23fee5(%rip)        # 6429cc <Line>
  402ae7:	eb cb                	jmp    402ab4 <parse_line_directive+0x1a4>
  402ae9:	0f 1f 80 00 00 00 00 	nopl   0x0(%rax)
  402af0:	40 80 fd 20          	cmp    $0x20,%bpl
  402af4:	74 a0                	je     402a96 <parse_line_directive+0x186>
  402af6:	40 80 fd 22          	cmp    $0x22,%bpl
  402afa:	0f 85 2a 02 00 00    	jne    402d2a <parse_line_directive+0x41a>
  402b00:	40 80 fd 22          	cmp    $0x22,%bpl
  402b04:	75 9d                	jne    402aa3 <parse_line_directive+0x193>
  402b06:	0f b6 53 01          	movzbl 0x1(%rbx),%edx
  402b0a:	80 fa 22             	cmp    $0x22,%dl
  402b0d:	0f 95 c0             	setne  %al
  402b10:	80 fa 0a             	cmp    $0xa,%dl
  402b13:	0f 84 f9 01 00 00    	je     402d12 <parse_line_directive+0x402>
  402b19:	84 c0                	test   %al,%al
  402b1b:	0f 84 f1 01 00 00    	je     402d12 <parse_line_directive+0x402>
  402b21:	31 c0                	xor    %eax,%eax
  402b23:	48 8d 6c 24 10       	lea    0x10(%rsp),%rbp
  402b28:	eb 1b                	jmp    402b45 <parse_line_directive+0x235>
  402b2a:	66 0f 1f 44 00 00    	nopw   0x0(%rax,%rax,1)
  402b30:	80 fa 0a             	cmp    $0xa,%dl
  402b33:	74 21                	je     402b56 <parse_line_directive+0x246>
  402b35:	48 83 c0 01          	add    $0x1,%rax
  402b39:	48 3d c8 00 00 00    	cmp    $0xc8,%rax
  402b3f:	0f 84 14 01 00 00    	je     402c59 <parse_line_directive+0x349>
  402b45:	88 54 05 00          	mov    %dl,0x0(%rbp,%rax,1)
  402b49:	0f b6 54 03 02       	movzbl 0x2(%rbx,%rax,1),%edx
  402b4e:	8d 48 01             	lea    0x1(%rax),%ecx
  402b51:	80 fa 22             	cmp    $0x22,%dl
  402b54:	75 da                	jne    402b30 <parse_line_directive+0x220>
  402b56:	48 63 c1             	movslq %ecx,%rax
  402b59:	80 fa 22             	cmp    $0x22,%dl
  402b5c:	c6 44 04 10 00       	movb   $0x0,0x10(%rsp,%rax,1)
  402b61:	0f 85 fa 00 00 00    	jne    402c61 <parse_line_directive+0x351>
  402b67:	81 f9 c8 00 00 00    	cmp    $0xc8,%ecx
  402b6d:	0f 84 84 01 00 00    	je     402cf7 <parse_line_directive+0x3e7>
  402b73:	8b 05 1f 95 26 00    	mov    0x26951f(%rip),%eax        # 66c098 <IgnoreLineDirectives>
  402b79:	85 c0                	test   %eax,%eax
  402b7b:	0f 85 28 ff ff ff    	jne    402aa9 <parse_line_directive+0x199>
  402b81:	8b 0d fd 86 26 00    	mov    0x2686fd(%rip),%ecx        # 66b284 <CurrentIncludedp>
  402b87:	48 8d 6c 24 10       	lea    0x10(%rsp),%rbp
  402b8c:	85 c9                	test   %ecx,%ecx
  402b8e:	0f 85 53 01 00 00    	jne    402ce7 <parse_line_directive+0x3d7>
  402b94:	48 89 ef             	mov    %rbp,%rdi
  402b97:	e8 c4 f3 ff ff       	callq  401f60 <HasSuffix.constprop.2>
  402b9c:	85 c0                	test   %eax,%eax
  402b9e:	0f 84 43 01 00 00    	je     402ce7 <parse_line_directive+0x3d7>
  402ba4:	8b 05 d6 86 26 00    	mov    0x2686d6(%rip),%eax        # 66b280 <CurrentFile>
  402baa:	48 8b 0d af a6 26 00 	mov    0x26a6af(%rip),%rcx        # 66d260 <yytext>
  402bb1:	c7 44 24 08 00 00 00 	movl   $0x0,0x8(%rsp)
  402bb8:	00 
  402bb9:	66 89 44 24 06       	mov    %ax,0x6(%rsp)
  402bbe:	8b 05 08 fe 23 00    	mov    0x23fe08(%rip),%eax        # 6429cc <Line>
  402bc4:	89 04 24             	mov    %eax,(%rsp)
  402bc7:	48 8b 05 ea 8a 26 00 	mov    0x268aea(%rip),%rax        # 66b6b8 <line_start>
  402bce:	48 39 c8             	cmp    %rcx,%rax
  402bd1:	0f 83 a2 00 00 00    	jae    402c79 <parse_line_directive+0x369>
  402bd7:	31 d2                	xor    %edx,%edx
  402bd9:	eb 10                	jmp    402beb <parse_line_directive+0x2db>
  402bdb:	83 c2 01             	add    $0x1,%edx
  402bde:	48 83 c0 01          	add    $0x1,%rax
  402be2:	48 39 c8             	cmp    %rcx,%rax
  402be5:	0f 84 90 00 00 00    	je     402c7b <parse_line_directive+0x36b>
  402beb:	80 38 09             	cmpb   $0x9,(%rax)
  402bee:	75 eb                	jne    402bdb <parse_line_directive+0x2cb>
  402bf0:	8d 72 07             	lea    0x7(%rdx),%esi
  402bf3:	85 d2                	test   %edx,%edx
  402bf5:	0f 48 d6             	cmovs  %esi,%edx
  402bf8:	c1 fa 03             	sar    $0x3,%edx
  402bfb:	8d 14 d5 08 00 00 00 	lea    0x8(,%rdx,8),%edx
  402c02:	eb da                	jmp    402bde <parse_line_directive+0x2ce>
  402c04:	0f 1f 40 00          	nopl   0x0(%rax)
  402c08:	40 80 fd 20          	cmp    $0x20,%bpl
  402c0c:	0f 84 e8 fd ff ff    	je     4029fa <parse_line_directive+0xea>
  402c12:	4c 89 e3             	mov    %r12,%rbx
  402c15:	e9 19 fe ff ff       	jmpq   402a33 <parse_line_directive+0x123>
  402c1a:	66 0f 1f 44 00 00    	nopw   0x0(%rax,%rax,1)
  402c20:	bf 70 6e 42 00       	mov    $0x426e70,%edi
  402c25:	31 c0                	xor    %eax,%eax
  402c27:	e8 94 0d 02 00       	callq  4239c0 <SyntaxError>
  402c2c:	83 05 99 fd 23 00 01 	addl   $0x1,0x23fd99(%rip)        # 6429cc <Line>
  402c33:	e9 7c fe ff ff       	jmpq   402ab4 <parse_line_directive+0x1a4>
  402c38:	0f 1f 84 00 00 00 00 	nopl   0x0(%rax,%rax,1)
  402c3f:	00 
  402c40:	ba 31 6c 42 00       	mov    $0x426c31,%edx
  402c45:	be 6b 03 00 00       	mov    $0x36b,%esi
  402c4a:	bf 91 6b 42 00       	mov    $0x426b91,%edi
  402c4f:	e8 ec 0c 02 00       	callq  423940 <Fail>
  402c54:	e9 ff fc ff ff       	jmpq   402958 <parse_line_directive+0x48>
  402c59:	c6 84 24 d8 00 00 00 	movb   $0x0,0xd8(%rsp)
  402c60:	00 
  402c61:	bf c8 6e 42 00       	mov    $0x426ec8,%edi
  402c66:	31 c0                	xor    %eax,%eax
  402c68:	e8 53 0d 02 00       	callq  4239c0 <SyntaxError>
  402c6d:	83 05 58 fd 23 00 01 	addl   $0x1,0x23fd58(%rip)        # 6429cc <Line>
  402c74:	e9 3b fe ff ff       	jmpq   402ab4 <parse_line_directive+0x1a4>
  402c79:	31 d2                	xor    %edx,%edx
__NTH (sprintf (char *__restrict __s, const char *__restrict __fmt, ...))
  402c7b:	48 8d bc 24 e0 00 00 	lea    0xe0(%rsp),%rdi
  402c82:	00 
  402c83:	49 89 e8             	mov    %rbp,%r8
  402c86:	b9 59 6c 42 00       	mov    $0x426c59,%ecx
  402c8b:	be 01 00 00 00       	mov    $0x1,%esi
  402c90:	66 89 54 24 04       	mov    %dx,0x4(%rsp)
  402c95:	31 c0                	xor    %eax,%eax
  402c97:	ba d5 00 00 00       	mov    $0xd5,%edx
  402c9c:	e8 ff e3 ff ff       	callq  4010a0 <__sprintf_chk@plt>
  402ca1:	48 8d bc 24 e0 00 00 	lea    0xe0(%rsp),%rdi
  402ca8:	00 
  402ca9:	e8 42 b0 01 00       	callq  41dcf0 <UniqueString>
  402cae:	48 8b 14 24          	mov    (%rsp),%rdx
  402cb2:	8b 4c 24 08          	mov    0x8(%rsp),%ecx
  402cb6:	be 01 00 00 00       	mov    $0x1,%esi
  402cbb:	48 89 c7             	mov    %rax,%rdi
  402cbe:	e8 9d b9 00 00       	callq  40e660 <MakeTextCoord>
  402cc3:	48 8b 3d e6 89 26 00 	mov    0x2689e6(%rip),%rdi        # 66b6b0 <pragmas>
  402cca:	48 89 c6             	mov    %rax,%rsi
  402ccd:	e8 ae 0e 01 00       	callq  413b80 <AppendItem>
  402cd2:	48 89 05 d7 89 26 00 	mov    %rax,0x2689d7(%rip)        # 66b6b0 <pragmas>
  402cd9:	8b 05 b9 93 26 00    	mov    0x2693b9(%rip),%eax        # 66c098 <IgnoreLineDirectives>
  402cdf:	85 c0                	test   %eax,%eax
  402ce1:	0f 85 c2 fd ff ff    	jne    402aa9 <parse_line_directive+0x199>
  402ce7:	44 89 e6             	mov    %r12d,%esi
  402cea:	48 89 ef             	mov    %rbp,%rdi
  402ced:	e8 8e fa ff ff       	callq  402780 <SetFile>
  402cf2:	e9 ac fd ff ff       	jmpq   402aa3 <parse_line_directive+0x193>
  402cf7:	ba c8 00 00 00       	mov    $0xc8,%edx
  402cfc:	be f8 6e 42 00       	mov    $0x426ef8,%esi
  402d01:	bf 01 00 00 00       	mov    $0x1,%edi
  402d06:	31 c0                	xor    %eax,%eax
  402d08:	e8 a3 0d 02 00       	callq  423ab0 <Warning>
  402d0d:	e9 61 fe ff ff       	jmpq   402b73 <parse_line_directive+0x263>
  402d12:	84 c0                	test   %al,%al
  402d14:	c6 44 24 10 00       	movb   $0x0,0x10(%rsp)
  402d19:	0f 84 54 fe ff ff    	je     402b73 <parse_line_directive+0x263>
  402d1f:	90                   	nop
  402d20:	e9 3c ff ff ff       	jmpq   402c61 <parse_line_directive+0x351>
  402d25:	e8 c6 e1 ff ff       	callq  400ef0 <__stack_chk_fail@plt>
  402d2a:	40 80 fd 0a          	cmp    $0xa,%bpl
  402d2e:	66 90                	xchg   %ax,%ax
  402d30:	0f 84 ca fd ff ff    	je     402b00 <parse_line_directive+0x1f0>
  402d36:	e9 3d fd ff ff       	jmpq   402a78 <parse_line_directive+0x168>
  402d3b:	0f 1f 44 00 00       	nopl   0x0(%rax,%rax,1)

0000000000402d40 <yylex>:
  402d40:	41 57                	push   %r15
  402d42:	41 56                	push   %r14
  402d44:	41 55                	push   %r13
  402d46:	41 54                	push   %r12
  402d48:	55                   	push   %rbp
  402d49:	53                   	push   %rbx
  402d4a:	48 83 ec 48          	sub    $0x48,%rsp
  402d4e:	44 8b 15 4b fc 23 00 	mov    0x23fc4b(%rip),%r10d        # 6429a0 <yy_init>
  402d55:	64 48 8b 04 25 28 00 	mov    %fs:0x28,%rax
  402d5c:	00 00 
  402d5e:	48 89 44 24 38       	mov    %rax,0x38(%rsp)
  402d63:	31 c0                	xor    %eax,%eax
  402d65:	45 85 d2             	test   %r10d,%r10d
  402d68:	0f 85 2b 01 00 00    	jne    402e99 <yylex+0x159>
  402d6e:	0f b6 35 6f 89 26 00 	movzbl 0x26896f(%rip),%esi        # 66b6e4 <yy_hold_char>
  402d75:	4c 8b 25 5c 89 26 00 	mov    0x26895c(%rip),%r12        # 66b6d8 <yy_c_buf_p>
  402d7c:	48 8b 15 65 89 26 00 	mov    0x268965(%rip),%rdx        # 66b6e8 <yy_current_buffer>
  402d83:	8b 05 47 89 26 00    	mov    0x268947(%rip),%eax        # 66b6d0 <yy_start>
  402d89:	41 88 34 24          	mov    %sil,(%r12)
  402d8d:	03 42 28             	add    0x28(%rdx),%eax
  402d90:	4c 89 e5             	mov    %r12,%rbp
  402d93:	bb 00 20 00 00       	mov    $0x2000,%ebx
  402d98:	48 63 d0             	movslq %eax,%rdx
  402d9b:	44 8b 0d 26 89 26 00 	mov    0x268926(%rip),%r9d        # 66b6c8 <yy_last_accepting_state>
  402da2:	4c 8b 05 17 89 26 00 	mov    0x268917(%rip),%r8        # 66b6c0 <yy_last_accepting_cpos>
  402da9:	0f bf 8c 12 c0 c3 42 	movswl 0x42c3c0(%rdx,%rdx,1),%ecx
  402db0:	00 
  402db1:	0f 1f 80 00 00 00 00 	nopl   0x0(%rax)
  402db8:	66 83 bc 12 a0 ce 42 	cmpw   $0x0,0x42cea0(%rdx,%rdx,1)
  402dbf:	00 00 
  402dc1:	0f b6 34 b5 a0 ca 42 	movzbl 0x42caa0(,%rsi,4),%esi
  402dc8:	00 
  402dc9:	4c 0f 45 c5          	cmovne %rbp,%r8
  402dcd:	44 0f 45 c8          	cmovne %eax,%r9d
  402dd1:	eb 27                	jmp    402dfa <yylex+0xba>
  402dd3:	0f 1f 44 00 00       	nopl   0x0(%rax,%rax,1)
  402dd8:	0f bf 84 12 00 be 42 	movswl 0x42be00(%rdx,%rdx,1),%eax
  402ddf:	00 
  402de0:	3d 71 02 00 00       	cmp    $0x271,%eax
  402de5:	7e 08                	jle    402def <yylex+0xaf>
  402de7:	0f b6 34 b5 80 c9 42 	movzbl 0x42c980(,%rsi,4),%esi
  402dee:	00 
  402def:	48 63 d0             	movslq %eax,%rdx
  402df2:	0f bf 8c 12 c0 c3 42 	movswl 0x42c3c0(%rdx,%rdx,1),%ecx
  402df9:	00 
  402dfa:	01 f1                	add    %esi,%ecx
  402dfc:	48 63 f9             	movslq %ecx,%rdi
  402dff:	0f bf bc 3f c0 76 42 	movswl 0x4276c0(%rdi,%rdi,1),%edi
  402e06:	00 
  402e07:	39 c7                	cmp    %eax,%edi
  402e09:	75 cd                	jne    402dd8 <yylex+0x98>
  402e0b:	0f bf 84 09 60 9a 42 	movswl 0x429a60(%rcx,%rcx,1),%eax
  402e12:	00 
  402e13:	48 83 c5 01          	add    $0x1,%rbp
  402e17:	48 63 d0             	movslq %eax,%rdx
  402e1a:	0f bf 8c 12 c0 c3 42 	movswl 0x42c3c0(%rdx,%rdx,1),%ecx
  402e21:	00 
  402e22:	66 81 f9 8a 11       	cmp    $0x118a,%cx
  402e27:	74 06                	je     402e2f <yylex+0xef>
  402e29:	0f b6 75 00          	movzbl 0x0(%rbp),%esi
  402e2d:	eb 89                	jmp    402db8 <yylex+0x78>
  402e2f:	0f bf 84 12 a0 ce 42 	movswl 0x42cea0(%rdx,%rdx,1),%eax
  402e36:	00 
  402e37:	44 89 0d 8a 88 26 00 	mov    %r9d,0x26888a(%rip)        # 66b6c8 <yy_last_accepting_state>
  402e3e:	4c 89 05 7b 88 26 00 	mov    %r8,0x26887b(%rip)        # 66b6c0 <yy_last_accepting_cpos>
  402e45:	85 c0                	test   %eax,%eax
  402e47:	75 16                	jne    402e5f <yylex+0x11f>
  402e49:	48 63 05 78 88 26 00 	movslq 0x268878(%rip),%rax        # 66b6c8 <yy_last_accepting_state>
  402e50:	48 8b 2d 69 88 26 00 	mov    0x268869(%rip),%rbp        # 66b6c0 <yy_last_accepting_cpos>
  402e57:	0f bf 84 00 a0 ce 42 	movswl 0x42cea0(%rax,%rax,1),%eax
  402e5e:	00 
  402e5f:	48 89 ea             	mov    %rbp,%rdx
  402e62:	4c 89 25 f7 a3 26 00 	mov    %r12,0x26a3f7(%rip)        # 66d260 <yytext>
  402e69:	48 89 2d 68 88 26 00 	mov    %rbp,0x268868(%rip)        # 66b6d8 <yy_c_buf_p>
  402e70:	4c 29 e2             	sub    %r12,%rdx
  402e73:	89 15 ef a3 26 00    	mov    %edx,0x26a3ef(%rip)        # 66d268 <yyleng>
  402e79:	0f b6 55 00          	movzbl 0x0(%rbp),%edx
  402e7d:	c6 45 00 00          	movb   $0x0,0x0(%rbp)
  402e81:	88 15 5d 88 26 00    	mov    %dl,0x26885d(%rip)        # 66b6e4 <yy_hold_char>
  402e87:	83 f8 78             	cmp    $0x78,%eax
  402e8a:	0f 87 40 45 00 00    	ja     4073d0 <yylex+0x4690>
  402e90:	89 c0                	mov    %eax,%eax
  402e92:	ff 24 c5 f8 72 42 00 	jmpq   *0x4272f8(,%rax,8)
  402e99:	44 8b 0d 30 88 26 00 	mov    0x268830(%rip),%r9d        # 66b6d0 <yy_start>
  402ea0:	c7 05 f6 fa 23 00 00 	movl   $0x0,0x23faf6(%rip)        # 6429a0 <yy_init>
  402ea7:	00 00 00 
  402eaa:	45 85 c9             	test   %r9d,%r9d
  402ead:	75 0a                	jne    402eb9 <yylex+0x179>
  402eaf:	c7 05 17 88 26 00 01 	movl   $0x1,0x268817(%rip)        # 66b6d0 <yy_start>
  402eb6:	00 00 00 
  402eb9:	48 83 3d e7 87 26 00 	cmpq   $0x0,0x2687e7(%rip)        # 66b6a8 <yyin>
  402ec0:	00 
  402ec1:	74 52                	je     402f15 <yylex+0x1d5>
  402ec3:	48 83 3d d5 87 26 00 	cmpq   $0x0,0x2687d5(%rip)        # 66b6a0 <yyout>
  402eca:	00 
  402ecb:	74 38                	je     402f05 <yylex+0x1c5>
  402ecd:	48 8b 15 14 88 26 00 	mov    0x268814(%rip),%rdx        # 66b6e8 <yy_current_buffer>
  402ed4:	48 85 d2             	test   %rdx,%rdx
  402ed7:	0f 84 8c 00 00 00    	je     402f69 <yylex+0x229>
  402edd:	8b 42 1c             	mov    0x1c(%rdx),%eax
  402ee0:	4c 8b 62 10          	mov    0x10(%rdx),%r12
  402ee4:	89 05 f6 87 26 00    	mov    %eax,0x2687f6(%rip)        # 66b6e0 <yy_n_chars>
  402eea:	48 8b 02             	mov    (%rdx),%rax
  402eed:	4c 89 25 6c a3 26 00 	mov    %r12,0x26a36c(%rip)        # 66d260 <yytext>
  402ef4:	48 89 05 ad 87 26 00 	mov    %rax,0x2687ad(%rip)        # 66b6a8 <yyin>
  402efb:	41 0f b6 34 24       	movzbl (%r12),%esi
  402f00:	e9 7e fe ff ff       	jmpq   402d83 <yylex+0x43>
  402f05:	48 8b 05 54 83 26 00 	mov    0x268354(%rip),%rax        # 66b260 <stdout@@GLIBC_2.2.5>
  402f0c:	48 89 05 8d 87 26 00 	mov    %rax,0x26878d(%rip)        # 66b6a0 <yyout>
  402f13:	eb b8                	jmp    402ecd <yylex+0x18d>
  402f15:	48 8b 05 4c 83 26 00 	mov    0x26834c(%rip),%rax        # 66b268 <stdin@@GLIBC_2.2.5>
  402f1c:	48 89 05 85 87 26 00 	mov    %rax,0x268785(%rip)        # 66b6a8 <yyin>
  402f23:	eb 9e                	jmp    402ec3 <yylex+0x183>
  402f25:	48 63 05 3c a3 26 00 	movslq 0x26a33c(%rip),%rax        # 66d268 <yyleng>
  402f2c:	85 c0                	test   %eax,%eax
  402f2e:	0f 8e 7b 39 00 00    	jle    4068af <yylex+0x3b6f>
  402f34:	48 8b 0d 25 a3 26 00 	mov    0x26a325(%rip),%rcx        # 66d260 <yytext>
  402f3b:	48 8b 15 a6 87 26 00 	mov    0x2687a6(%rip),%rdx        # 66b6e8 <yy_current_buffer>
  402f42:	80 7c 01 ff 0a       	cmpb   $0xa,-0x1(%rcx,%rax,1)
  402f47:	0f 94 c0             	sete   %al
  402f4a:	0f b6 c0             	movzbl %al,%eax
  402f4d:	89 42 28             	mov    %eax,0x28(%rdx)
  402f50:	8b 05 7a 87 26 00    	mov    0x26877a(%rip),%eax        # 66b6d0 <yy_start>
  402f56:	0f b6 35 87 87 26 00 	movzbl 0x268787(%rip),%esi        # 66b6e4 <yy_hold_char>
  402f5d:	4c 8b 25 74 87 26 00 	mov    0x268774(%rip),%r12        # 66b6d8 <yy_c_buf_p>
  402f64:	e9 20 fe ff ff       	jmpq   402d89 <yylex+0x49>
  402f69:	48 8b 3d 38 87 26 00 	mov    0x268738(%rip),%rdi        # 66b6a8 <yyin>
  402f70:	be 00 40 00 00       	mov    $0x4000,%esi
  402f75:	e8 d6 f5 ff ff       	callq  402550 <yy_create_buffer>
  402f7a:	48 89 05 67 87 26 00 	mov    %rax,0x268767(%rip)        # 66b6e8 <yy_current_buffer>
  402f81:	48 89 c2             	mov    %rax,%rdx
  402f84:	e9 54 ff ff ff       	jmpq   402edd <yylex+0x19d>
  402f89:	48 63 05 d8 a2 26 00 	movslq 0x26a2d8(%rip),%rax        # 66d268 <yyleng>
  402f90:	48 8b 3d c9 a2 26 00 	mov    0x26a2c9(%rip),%rdi        # 66d260 <yytext>
  402f97:	85 c0                	test   %eax,%eax
  402f99:	7e 14                	jle    402faf <yylex+0x26f>
  402f9b:	31 d2                	xor    %edx,%edx
  402f9d:	80 7c 07 ff 0a       	cmpb   $0xa,-0x1(%rdi,%rax,1)
  402fa2:	48 8b 05 3f 87 26 00 	mov    0x26873f(%rip),%rax        # 66b6e8 <yy_current_buffer>
  402fa9:	0f 94 c2             	sete   %dl
  402fac:	89 50 28             	mov    %edx,0x28(%rax)
  402faf:	e8 5c f9 ff ff       	callq  402910 <parse_line_directive>
  402fb4:	8b 05 16 87 26 00    	mov    0x268716(%rip),%eax        # 66b6d0 <yy_start>
  402fba:	48 8b 15 27 87 26 00 	mov    0x268727(%rip),%rdx        # 66b6e8 <yy_current_buffer>
  402fc1:	eb 93                	jmp    402f56 <yylex+0x216>
  402fc3:	48 63 05 9e a2 26 00 	movslq 0x26a29e(%rip),%rax        # 66d268 <yyleng>
  402fca:	48 8b 0d 8f a2 26 00 	mov    0x26a28f(%rip),%rcx        # 66d260 <yytext>
  402fd1:	85 c0                	test   %eax,%eax
  402fd3:	7e 14                	jle    402fe9 <yylex+0x2a9>
  402fd5:	31 d2                	xor    %edx,%edx
  402fd7:	80 7c 01 ff 0a       	cmpb   $0xa,-0x1(%rcx,%rax,1)
  402fdc:	48 8b 05 05 87 26 00 	mov    0x268705(%rip),%rax        # 66b6e8 <yy_current_buffer>
  402fe3:	0f 94 c2             	sete   %dl
  402fe6:	89 50 28             	mov    %edx,0x28(%rax)
  402fe9:	8b 05 91 82 26 00    	mov    0x268291(%rip),%eax        # 66b280 <CurrentFile>
  402fef:	48 8b 15 c2 86 26 00 	mov    0x2686c2(%rip),%rdx        # 66b6b8 <line_start>
  402ff6:	66 89 05 99 a2 26 00 	mov    %ax,0x26a299(%rip)        # 66d296 <yylval+0x6>
  402ffd:	8b 05 c9 f9 23 00    	mov    0x23f9c9(%rip),%eax        # 6429cc <Line>
  403003:	48 39 ca             	cmp    %rcx,%rdx
  403006:	89 05 84 a2 26 00    	mov    %eax,0x26a284(%rip)        # 66d290 <yylval>
  40300c:	8b 05 72 82 26 00    	mov    0x268272(%rip),%eax        # 66b284 <CurrentIncludedp>
  403012:	89 05 80 a2 26 00    	mov    %eax,0x26a280(%rip)        # 66d298 <yylval+0x8>
  403018:	0f 83 1c 41 00 00    	jae    40713a <yylex+0x43fa>
  40301e:	31 c0                	xor    %eax,%eax
  403020:	eb 10                	jmp    403032 <yylex+0x2f2>
  403022:	83 c0 01             	add    $0x1,%eax
  403025:	48 83 c2 01          	add    $0x1,%rdx
  403029:	48 39 ca             	cmp    %rcx,%rdx
  40302c:	0f 84 0a 41 00 00    	je     40713c <yylex+0x43fc>
  403032:	80 3a 09             	cmpb   $0x9,(%rdx)
  403035:	75 eb                	jne    403022 <yylex+0x2e2>
  403037:	8d 70 07             	lea    0x7(%rax),%esi
  40303a:	85 c0                	test   %eax,%eax
  40303c:	0f 48 c6             	cmovs  %esi,%eax
  40303f:	c1 f8 03             	sar    $0x3,%eax
  403042:	8d 04 c5 08 00 00 00 	lea    0x8(,%rax,8),%eax
  403049:	eb da                	jmp    403025 <yylex+0x2e5>
  40304b:	48 63 05 16 a2 26 00 	movslq 0x26a216(%rip),%rax        # 66d268 <yyleng>
  403052:	48 8b 0d 07 a2 26 00 	mov    0x26a207(%rip),%rcx        # 66d260 <yytext>
  403059:	85 c0                	test   %eax,%eax
  40305b:	7e 14                	jle    403071 <yylex+0x331>
  40305d:	31 d2                	xor    %edx,%edx
  40305f:	80 7c 01 ff 0a       	cmpb   $0xa,-0x1(%rcx,%rax,1)
  403064:	48 8b 05 7d 86 26 00 	mov    0x26867d(%rip),%rax        # 66b6e8 <yy_current_buffer>
  40306b:	0f 94 c2             	sete   %dl
  40306e:	89 50 28             	mov    %edx,0x28(%rax)
  403071:	8b 05 09 82 26 00    	mov    0x268209(%rip),%eax        # 66b280 <CurrentFile>
  403077:	48 8b 15 3a 86 26 00 	mov    0x26863a(%rip),%rdx        # 66b6b8 <line_start>
  40307e:	66 89 05 11 a2 26 00 	mov    %ax,0x26a211(%rip)        # 66d296 <yylval+0x6>
  403085:	8b 05 41 f9 23 00    	mov    0x23f941(%rip),%eax        # 6429cc <Line>
  40308b:	48 39 ca             	cmp    %rcx,%rdx
  40308e:	89 05 fc a1 26 00    	mov    %eax,0x26a1fc(%rip)        # 66d290 <yylval>
  403094:	8b 05 ea 81 26 00    	mov    0x2681ea(%rip),%eax        # 66b284 <CurrentIncludedp>
  40309a:	89 05 f8 a1 26 00    	mov    %eax,0x26a1f8(%rip)        # 66d298 <yylval+0x8>
  4030a0:	0f 83 62 40 00 00    	jae    407108 <yylex+0x43c8>
  4030a6:	31 c0                	xor    %eax,%eax
  4030a8:	eb 10                	jmp    4030ba <yylex+0x37a>
  4030aa:	83 c0 01             	add    $0x1,%eax
  4030ad:	48 83 c2 01          	add    $0x1,%rdx
  4030b1:	48 39 ca             	cmp    %rcx,%rdx
  4030b4:	0f 84 50 40 00 00    	je     40710a <yylex+0x43ca>
  4030ba:	80 3a 09             	cmpb   $0x9,(%rdx)
  4030bd:	75 eb                	jne    4030aa <yylex+0x36a>
  4030bf:	8d 70 07             	lea    0x7(%rax),%esi
  4030c2:	85 c0                	test   %eax,%eax
  4030c4:	0f 48 c6             	cmovs  %esi,%eax
  4030c7:	c1 f8 03             	sar    $0x3,%eax
  4030ca:	8d 04 c5 08 00 00 00 	lea    0x8(,%rax,8),%eax
  4030d1:	eb da                	jmp    4030ad <yylex+0x36d>
  4030d3:	48 63 05 8e a1 26 00 	movslq 0x26a18e(%rip),%rax        # 66d268 <yyleng>
  4030da:	48 8b 0d 7f a1 26 00 	mov    0x26a17f(%rip),%rcx        # 66d260 <yytext>
  4030e1:	85 c0                	test   %eax,%eax
  4030e3:	7e 14                	jle    4030f9 <yylex+0x3b9>
  4030e5:	31 d2                	xor    %edx,%edx
  4030e7:	80 7c 01 ff 0a       	cmpb   $0xa,-0x1(%rcx,%rax,1)
  4030ec:	48 8b 05 f5 85 26 00 	mov    0x2685f5(%rip),%rax        # 66b6e8 <yy_current_buffer>
  4030f3:	0f 94 c2             	sete   %dl
  4030f6:	89 50 28             	mov    %edx,0x28(%rax)
  4030f9:	8b 05 81 81 26 00    	mov    0x268181(%rip),%eax        # 66b280 <CurrentFile>
  4030ff:	48 8b 15 b2 85 26 00 	mov    0x2685b2(%rip),%rdx        # 66b6b8 <line_start>
  403106:	66 89 05 89 a1 26 00 	mov    %ax,0x26a189(%rip)        # 66d296 <yylval+0x6>
  40310d:	8b 05 b9 f8 23 00    	mov    0x23f8b9(%rip),%eax        # 6429cc <Line>
  403113:	48 39 ca             	cmp    %rcx,%rdx
  403116:	89 05 74 a1 26 00    	mov    %eax,0x26a174(%rip)        # 66d290 <yylval>
  40311c:	8b 05 62 81 26 00    	mov    0x268162(%rip),%eax        # 66b284 <CurrentIncludedp>
  403122:	89 05 70 a1 26 00    	mov    %eax,0x26a170(%rip)        # 66d298 <yylval+0x8>
  403128:	0f 83 98 38 00 00    	jae    4069c6 <yylex+0x3c86>
  40312e:	31 c0                	xor    %eax,%eax
  403130:	eb 10                	jmp    403142 <yylex+0x402>
  403132:	83 c0 01             	add    $0x1,%eax
  403135:	48 83 c2 01          	add    $0x1,%rdx
  403139:	48 39 ca             	cmp    %rcx,%rdx
  40313c:	0f 84 86 38 00 00    	je     4069c8 <yylex+0x3c88>
  403142:	80 3a 09             	cmpb   $0x9,(%rdx)
  403145:	75 eb                	jne    403132 <yylex+0x3f2>
  403147:	8d 70 07             	lea    0x7(%rax),%esi
  40314a:	85 c0                	test   %eax,%eax
  40314c:	0f 48 c6             	cmovs  %esi,%eax
  40314f:	c1 f8 03             	sar    $0x3,%eax
  403152:	8d 04 c5 08 00 00 00 	lea    0x8(,%rax,8),%eax
  403159:	eb da                	jmp    403135 <yylex+0x3f5>
  40315b:	48 63 05 06 a1 26 00 	movslq 0x26a106(%rip),%rax        # 66d268 <yyleng>
  403162:	48 8b 35 f7 a0 26 00 	mov    0x26a0f7(%rip),%rsi        # 66d260 <yytext>
  403169:	85 c0                	test   %eax,%eax
  40316b:	7e 14                	jle    403181 <yylex+0x441>
  40316d:	31 d2                	xor    %edx,%edx
  40316f:	80 7c 06 ff 0a       	cmpb   $0xa,-0x1(%rsi,%rax,1)
  403174:	48 8b 05 6d 85 26 00 	mov    0x26856d(%rip),%rax        # 66b6e8 <yy_current_buffer>
  40317b:	0f 94 c2             	sete   %dl
  40317e:	89 50 28             	mov    %edx,0x28(%rax)
  403181:	31 c0                	xor    %eax,%eax
  403183:	bf 60 6f 42 00       	mov    $0x426f60,%edi
  403188:	e8 33 08 02 00       	callq  4239c0 <SyntaxError>
  40318d:	8b 05 ed 80 26 00    	mov    0x2680ed(%rip),%eax        # 66b280 <CurrentFile>
  403193:	48 8b 15 1e 85 26 00 	mov    0x26851e(%rip),%rdx        # 66b6b8 <line_start>
  40319a:	48 8b 0d bf a0 26 00 	mov    0x26a0bf(%rip),%rcx        # 66d260 <yytext>
  4031a1:	66 89 05 ee a0 26 00 	mov    %ax,0x26a0ee(%rip)        # 66d296 <yylval+0x6>
  4031a8:	8b 05 1e f8 23 00    	mov    0x23f81e(%rip),%eax        # 6429cc <Line>
  4031ae:	48 39 ca             	cmp    %rcx,%rdx
  4031b1:	89 05 d9 a0 26 00    	mov    %eax,0x26a0d9(%rip)        # 66d290 <yylval>
  4031b7:	8b 05 c7 80 26 00    	mov    0x2680c7(%rip),%eax        # 66b284 <CurrentIncludedp>
  4031bd:	89 05 d5 a0 26 00    	mov    %eax,0x26a0d5(%rip)        # 66d298 <yylval+0x8>
  4031c3:	0f 83 de 3e 00 00    	jae    4070a7 <yylex+0x4367>
  4031c9:	31 c0                	xor    %eax,%eax
  4031cb:	eb 10                	jmp    4031dd <yylex+0x49d>
  4031cd:	83 c0 01             	add    $0x1,%eax
  4031d0:	48 83 c2 01          	add    $0x1,%rdx
  4031d4:	48 39 ca             	cmp    %rcx,%rdx
  4031d7:	0f 84 cc 3e 00 00    	je     4070a9 <yylex+0x4369>
  4031dd:	80 3a 09             	cmpb   $0x9,(%rdx)
  4031e0:	75 eb                	jne    4031cd <yylex+0x48d>
  4031e2:	8d 70 07             	lea    0x7(%rax),%esi
  4031e5:	85 c0                	test   %eax,%eax
  4031e7:	0f 48 c6             	cmovs  %esi,%eax
  4031ea:	c1 f8 03             	sar    $0x3,%eax
  4031ed:	8d 04 c5 08 00 00 00 	lea    0x8(,%rax,8),%eax
  4031f4:	eb da                	jmp    4031d0 <yylex+0x490>
  4031f6:	48 63 05 6b a0 26 00 	movslq 0x26a06b(%rip),%rax        # 66d268 <yyleng>
  4031fd:	48 8b 0d 5c a0 26 00 	mov    0x26a05c(%rip),%rcx        # 66d260 <yytext>
  403204:	85 c0                	test   %eax,%eax
  403206:	7e 14                	jle    40321c <yylex+0x4dc>
  403208:	31 d2                	xor    %edx,%edx
  40320a:	80 7c 01 ff 0a       	cmpb   $0xa,-0x1(%rcx,%rax,1)
  40320f:	48 8b 05 d2 84 26 00 	mov    0x2684d2(%rip),%rax        # 66b6e8 <yy_current_buffer>
  403216:	0f 94 c2             	sete   %dl
  403219:	89 50 28             	mov    %edx,0x28(%rax)
  40321c:	8b 05 5e 80 26 00    	mov    0x26805e(%rip),%eax        # 66b280 <CurrentFile>
  403222:	48 8b 15 8f 84 26 00 	mov    0x26848f(%rip),%rdx        # 66b6b8 <line_start>
  403229:	66 89 05 66 a0 26 00 	mov    %ax,0x26a066(%rip)        # 66d296 <yylval+0x6>
  403230:	8b 05 96 f7 23 00    	mov    0x23f796(%rip),%eax        # 6429cc <Line>
  403236:	48 39 ca             	cmp    %rcx,%rdx
  403239:	89 05 51 a0 26 00    	mov    %eax,0x26a051(%rip)        # 66d290 <yylval>
  40323f:	8b 05 3f 80 26 00    	mov    0x26803f(%rip),%eax        # 66b284 <CurrentIncludedp>
  403245:	89 05 4d a0 26 00    	mov    %eax,0x26a04d(%rip)        # 66d298 <yylval+0x8>
  40324b:	0f 83 76 3c 00 00    	jae    406ec7 <yylex+0x4187>
  403251:	31 c0                	xor    %eax,%eax
  403253:	eb 10                	jmp    403265 <yylex+0x525>
  403255:	83 c0 01             	add    $0x1,%eax
  403258:	48 83 c2 01          	add    $0x1,%rdx
  40325c:	48 39 ca             	cmp    %rcx,%rdx
  40325f:	0f 84 64 3c 00 00    	je     406ec9 <yylex+0x4189>
  403265:	80 3a 09             	cmpb   $0x9,(%rdx)
  403268:	75 eb                	jne    403255 <yylex+0x515>
  40326a:	8d 70 07             	lea    0x7(%rax),%esi
  40326d:	85 c0                	test   %eax,%eax
  40326f:	0f 48 c6             	cmovs  %esi,%eax
  403272:	c1 f8 03             	sar    $0x3,%eax
  403275:	8d 04 c5 08 00 00 00 	lea    0x8(,%rax,8),%eax
  40327c:	eb da                	jmp    403258 <yylex+0x518>
  40327e:	48 63 05 e3 9f 26 00 	movslq 0x269fe3(%rip),%rax        # 66d268 <yyleng>
  403285:	48 8b 0d d4 9f 26 00 	mov    0x269fd4(%rip),%rcx        # 66d260 <yytext>
  40328c:	85 c0                	test   %eax,%eax
  40328e:	7e 14                	jle    4032a4 <yylex+0x564>
  403290:	31 d2                	xor    %edx,%edx
  403292:	80 7c 01 ff 0a       	cmpb   $0xa,-0x1(%rcx,%rax,1)
  403297:	48 8b 05 4a 84 26 00 	mov    0x26844a(%rip),%rax        # 66b6e8 <yy_current_buffer>
  40329e:	0f 94 c2             	sete   %dl
  4032a1:	89 50 28             	mov    %edx,0x28(%rax)
  4032a4:	8b 05 d6 7f 26 00    	mov    0x267fd6(%rip),%eax        # 66b280 <CurrentFile>
  4032aa:	48 8b 15 07 84 26 00 	mov    0x268407(%rip),%rdx        # 66b6b8 <line_start>
  4032b1:	66 89 05 de 9f 26 00 	mov    %ax,0x269fde(%rip)        # 66d296 <yylval+0x6>
  4032b8:	8b 05 0e f7 23 00    	mov    0x23f70e(%rip),%eax        # 6429cc <Line>
  4032be:	48 39 ca             	cmp    %rcx,%rdx
  4032c1:	89 05 c9 9f 26 00    	mov    %eax,0x269fc9(%rip)        # 66d290 <yylval>
  4032c7:	8b 05 b7 7f 26 00    	mov    0x267fb7(%rip),%eax        # 66b284 <CurrentIncludedp>
  4032cd:	89 05 c5 9f 26 00    	mov    %eax,0x269fc5(%rip)        # 66d298 <yylval+0x8>
  4032d3:	0f 83 be 3b 00 00    	jae    406e97 <yylex+0x4157>
  4032d9:	31 c0                	xor    %eax,%eax
  4032db:	eb 10                	jmp    4032ed <yylex+0x5ad>
  4032dd:	83 c0 01             	add    $0x1,%eax
  4032e0:	48 83 c2 01          	add    $0x1,%rdx
  4032e4:	48 39 ca             	cmp    %rcx,%rdx
  4032e7:	0f 84 ac 3b 00 00    	je     406e99 <yylex+0x4159>
  4032ed:	80 3a 09             	cmpb   $0x9,(%rdx)
  4032f0:	75 eb                	jne    4032dd <yylex+0x59d>
  4032f2:	8d 70 07             	lea    0x7(%rax),%esi
  4032f5:	85 c0                	test   %eax,%eax
  4032f7:	0f 48 c6             	cmovs  %esi,%eax
  4032fa:	c1 f8 03             	sar    $0x3,%eax
  4032fd:	8d 04 c5 08 00 00 00 	lea    0x8(,%rax,8),%eax
  403304:	eb da                	jmp    4032e0 <yylex+0x5a0>
  403306:	48 63 05 5b 9f 26 00 	movslq 0x269f5b(%rip),%rax        # 66d268 <yyleng>
  40330d:	48 8b 0d 4c 9f 26 00 	mov    0x269f4c(%rip),%rcx        # 66d260 <yytext>
  403314:	85 c0                	test   %eax,%eax
  403316:	7e 14                	jle    40332c <yylex+0x5ec>
  403318:	31 d2                	xor    %edx,%edx
  40331a:	80 7c 01 ff 0a       	cmpb   $0xa,-0x1(%rcx,%rax,1)
  40331f:	48 8b 05 c2 83 26 00 	mov    0x2683c2(%rip),%rax        # 66b6e8 <yy_current_buffer>
  403326:	0f 94 c2             	sete   %dl
  403329:	89 50 28             	mov    %edx,0x28(%rax)
  40332c:	8b 05 4e 7f 26 00    	mov    0x267f4e(%rip),%eax        # 66b280 <CurrentFile>
  403332:	48 8b 15 7f 83 26 00 	mov    0x26837f(%rip),%rdx        # 66b6b8 <line_start>
  403339:	66 89 05 56 9f 26 00 	mov    %ax,0x269f56(%rip)        # 66d296 <yylval+0x6>
  403340:	8b 05 86 f6 23 00    	mov    0x23f686(%rip),%eax        # 6429cc <Line>
  403346:	48 39 d1             	cmp    %rdx,%rcx
  403349:	89 05 41 9f 26 00    	mov    %eax,0x269f41(%rip)        # 66d290 <yylval>
  40334f:	8b 05 2f 7f 26 00    	mov    0x267f2f(%rip),%eax        # 66b284 <CurrentIncludedp>
  403355:	89 05 3d 9f 26 00    	mov    %eax,0x269f3d(%rip)        # 66d298 <yylval+0x8>
  40335b:	0f 86 14 3d 00 00    	jbe    407075 <yylex+0x4335>
  403361:	31 c0                	xor    %eax,%eax
  403363:	eb 10                	jmp    403375 <yylex+0x635>
  403365:	83 c0 01             	add    $0x1,%eax
  403368:	48 83 c2 01          	add    $0x1,%rdx
  40336c:	48 39 ca             	cmp    %rcx,%rdx
  40336f:	0f 84 02 3d 00 00    	je     407077 <yylex+0x4337>
  403375:	80 3a 09             	cmpb   $0x9,(%rdx)
  403378:	75 eb                	jne    403365 <yylex+0x625>
  40337a:	8d 70 07             	lea    0x7(%rax),%esi
  40337d:	85 c0                	test   %eax,%eax
  40337f:	0f 48 c6             	cmovs  %esi,%eax
  403382:	c1 f8 03             	sar    $0x3,%eax
  403385:	8d 04 c5 08 00 00 00 	lea    0x8(,%rax,8),%eax
  40338c:	eb da                	jmp    403368 <yylex+0x628>
  40338e:	48 63 05 d3 9e 26 00 	movslq 0x269ed3(%rip),%rax        # 66d268 <yyleng>
  403395:	48 8b 0d c4 9e 26 00 	mov    0x269ec4(%rip),%rcx        # 66d260 <yytext>
  40339c:	85 c0                	test   %eax,%eax
  40339e:	7e 14                	jle    4033b4 <yylex+0x674>
  4033a0:	31 d2                	xor    %edx,%edx
  4033a2:	80 7c 01 ff 0a       	cmpb   $0xa,-0x1(%rcx,%rax,1)
  4033a7:	48 8b 05 3a 83 26 00 	mov    0x26833a(%rip),%rax        # 66b6e8 <yy_current_buffer>
  4033ae:	0f 94 c2             	sete   %dl
  4033b1:	89 50 28             	mov    %edx,0x28(%rax)
  4033b4:	8b 05 c6 7e 26 00    	mov    0x267ec6(%rip),%eax        # 66b280 <CurrentFile>
  4033ba:	48 8b 15 f7 82 26 00 	mov    0x2682f7(%rip),%rdx        # 66b6b8 <line_start>
  4033c1:	66 89 05 ce 9e 26 00 	mov    %ax,0x269ece(%rip)        # 66d296 <yylval+0x6>
  4033c8:	8b 05 fe f5 23 00    	mov    0x23f5fe(%rip),%eax        # 6429cc <Line>
  4033ce:	48 39 ca             	cmp    %rcx,%rdx
  4033d1:	89 05 b9 9e 26 00    	mov    %eax,0x269eb9(%rip)        # 66d290 <yylval>
  4033d7:	8b 05 a7 7e 26 00    	mov    0x267ea7(%rip),%eax        # 66b284 <CurrentIncludedp>
  4033dd:	89 05 b5 9e 26 00    	mov    %eax,0x269eb5(%rip)        # 66d298 <yylval+0x8>
  4033e3:	0f 83 5a 3c 00 00    	jae    407043 <yylex+0x4303>
  4033e9:	31 c0                	xor    %eax,%eax
  4033eb:	eb 10                	jmp    4033fd <yylex+0x6bd>
  4033ed:	83 c0 01             	add    $0x1,%eax
  4033f0:	48 83 c2 01          	add    $0x1,%rdx
  4033f4:	48 39 ca             	cmp    %rcx,%rdx
  4033f7:	0f 84 48 3c 00 00    	je     407045 <yylex+0x4305>
  4033fd:	80 3a 09             	cmpb   $0x9,(%rdx)
  403400:	75 eb                	jne    4033ed <yylex+0x6ad>
  403402:	8d 70 07             	lea    0x7(%rax),%esi
  403405:	85 c0                	test   %eax,%eax
  403407:	0f 48 c6             	cmovs  %esi,%eax
  40340a:	c1 f8 03             	sar    $0x3,%eax
  40340d:	8d 04 c5 08 00 00 00 	lea    0x8(,%rax,8),%eax
  403414:	eb da                	jmp    4033f0 <yylex+0x6b0>
  403416:	48 63 05 4b 9e 26 00 	movslq 0x269e4b(%rip),%rax        # 66d268 <yyleng>
  40341d:	48 8b 0d 3c 9e 26 00 	mov    0x269e3c(%rip),%rcx        # 66d260 <yytext>
  403424:	85 c0                	test   %eax,%eax
  403426:	7e 14                	jle    40343c <yylex+0x6fc>
  403428:	31 d2                	xor    %edx,%edx
  40342a:	80 7c 01 ff 0a       	cmpb   $0xa,-0x1(%rcx,%rax,1)
  40342f:	48 8b 05 b2 82 26 00 	mov    0x2682b2(%rip),%rax        # 66b6e8 <yy_current_buffer>
  403436:	0f 94 c2             	sete   %dl
  403439:	89 50 28             	mov    %edx,0x28(%rax)
  40343c:	8b 05 3e 7e 26 00    	mov    0x267e3e(%rip),%eax        # 66b280 <CurrentFile>
  403442:	48 8b 15 6f 82 26 00 	mov    0x26826f(%rip),%rdx        # 66b6b8 <line_start>
  403449:	66 89 05 46 9e 26 00 	mov    %ax,0x269e46(%rip)        # 66d296 <yylval+0x6>
  403450:	8b 05 76 f5 23 00    	mov    0x23f576(%rip),%eax        # 6429cc <Line>
  403456:	48 39 d1             	cmp    %rdx,%rcx
  403459:	89 05 31 9e 26 00    	mov    %eax,0x269e31(%rip)        # 66d290 <yylval>
  40345f:	8b 05 1f 7e 26 00    	mov    0x267e1f(%rip),%eax        # 66b284 <CurrentIncludedp>
  403465:	89 05 2d 9e 26 00    	mov    %eax,0x269e2d(%rip)        # 66d298 <yylval+0x8>
  40346b:	0f 86 10 3b 00 00    	jbe    406f81 <yylex+0x4241>
  403471:	31 c0                	xor    %eax,%eax
  403473:	eb 10                	jmp    403485 <yylex+0x745>
  403475:	83 c0 01             	add    $0x1,%eax
  403478:	48 83 c2 01          	add    $0x1,%rdx
  40347c:	48 39 ca             	cmp    %rcx,%rdx
  40347f:	0f 84 fe 3a 00 00    	je     406f83 <yylex+0x4243>
  403485:	80 3a 09             	cmpb   $0x9,(%rdx)
  403488:	75 eb                	jne    403475 <yylex+0x735>
  40348a:	8d 70 07             	lea    0x7(%rax),%esi
  40348d:	85 c0                	test   %eax,%eax
  40348f:	0f 48 c6             	cmovs  %esi,%eax
  403492:	c1 f8 03             	sar    $0x3,%eax
  403495:	8d 04 c5 08 00 00 00 	lea    0x8(,%rax,8),%eax
  40349c:	eb da                	jmp    403478 <yylex+0x738>
  40349e:	48 63 05 c3 9d 26 00 	movslq 0x269dc3(%rip),%rax        # 66d268 <yyleng>
  4034a5:	48 8b 0d b4 9d 26 00 	mov    0x269db4(%rip),%rcx        # 66d260 <yytext>
  4034ac:	85 c0                	test   %eax,%eax
  4034ae:	7e 14                	jle    4034c4 <yylex+0x784>
  4034b0:	31 d2                	xor    %edx,%edx
  4034b2:	80 7c 01 ff 0a       	cmpb   $0xa,-0x1(%rcx,%rax,1)
  4034b7:	48 8b 05 2a 82 26 00 	mov    0x26822a(%rip),%rax        # 66b6e8 <yy_current_buffer>
  4034be:	0f 94 c2             	sete   %dl
  4034c1:	89 50 28             	mov    %edx,0x28(%rax)
  4034c4:	8b 05 b6 7d 26 00    	mov    0x267db6(%rip),%eax        # 66b280 <CurrentFile>
  4034ca:	48 8b 15 e7 81 26 00 	mov    0x2681e7(%rip),%rdx        # 66b6b8 <line_start>
  4034d1:	66 89 05 be 9d 26 00 	mov    %ax,0x269dbe(%rip)        # 66d296 <yylval+0x6>
  4034d8:	8b 05 ee f4 23 00    	mov    0x23f4ee(%rip),%eax        # 6429cc <Line>
  4034de:	48 39 ca             	cmp    %rcx,%rdx
  4034e1:	89 05 a9 9d 26 00    	mov    %eax,0x269da9(%rip)        # 66d290 <yylval>
  4034e7:	8b 05 97 7d 26 00    	mov    0x267d97(%rip),%eax        # 66b284 <CurrentIncludedp>
  4034ed:	89 05 a5 9d 26 00    	mov    %eax,0x269da5(%rip)        # 66d298 <yylval+0x8>
  4034f3:	0f 83 56 3a 00 00    	jae    406f4f <yylex+0x420f>
  4034f9:	31 c0                	xor    %eax,%eax
  4034fb:	eb 10                	jmp    40350d <yylex+0x7cd>
  4034fd:	83 c0 01             	add    $0x1,%eax
  403500:	48 83 c2 01          	add    $0x1,%rdx
  403504:	48 39 ca             	cmp    %rcx,%rdx
  403507:	0f 84 44 3a 00 00    	je     406f51 <yylex+0x4211>
  40350d:	80 3a 09             	cmpb   $0x9,(%rdx)
  403510:	75 eb                	jne    4034fd <yylex+0x7bd>
  403512:	8d 70 07             	lea    0x7(%rax),%esi
  403515:	85 c0                	test   %eax,%eax
  403517:	0f 48 c6             	cmovs  %esi,%eax
  40351a:	c1 f8 03             	sar    $0x3,%eax
  40351d:	8d 04 c5 08 00 00 00 	lea    0x8(,%rax,8),%eax
  403524:	eb da                	jmp    403500 <yylex+0x7c0>
  403526:	48 63 05 3b 9d 26 00 	movslq 0x269d3b(%rip),%rax        # 66d268 <yyleng>
  40352d:	48 8b 0d 2c 9d 26 00 	mov    0x269d2c(%rip),%rcx        # 66d260 <yytext>
  403534:	85 c0                	test   %eax,%eax
  403536:	7e 14                	jle    40354c <yylex+0x80c>
  403538:	31 d2                	xor    %edx,%edx
  40353a:	80 7c 01 ff 0a       	cmpb   $0xa,-0x1(%rcx,%rax,1)
  40353f:	48 8b 05 a2 81 26 00 	mov    0x2681a2(%rip),%rax        # 66b6e8 <yy_current_buffer>
  403546:	0f 94 c2             	sete   %dl
  403549:	89 50 28             	mov    %edx,0x28(%rax)
  40354c:	8b 05 2e 7d 26 00    	mov    0x267d2e(%rip),%eax        # 66b280 <CurrentFile>
  403552:	48 8b 15 5f 81 26 00 	mov    0x26815f(%rip),%rdx        # 66b6b8 <line_start>
  403559:	66 89 05 36 9d 26 00 	mov    %ax,0x269d36(%rip)        # 66d296 <yylval+0x6>
  403560:	8b 05 66 f4 23 00    	mov    0x23f466(%rip),%eax        # 6429cc <Line>
  403566:	48 39 d1             	cmp    %rdx,%rcx
  403569:	89 05 21 9d 26 00    	mov    %eax,0x269d21(%rip)        # 66d290 <yylval>
  40356f:	8b 05 0f 7d 26 00    	mov    0x267d0f(%rip),%eax        # 66b284 <CurrentIncludedp>
  403575:	89 05 1d 9d 26 00    	mov    %eax,0x269d1d(%rip)        # 66d298 <yylval+0x8>
  40357b:	0f 86 92 3a 00 00    	jbe    407013 <yylex+0x42d3>
  403581:	31 c0                	xor    %eax,%eax
  403583:	eb 10                	jmp    403595 <yylex+0x855>
  403585:	83 c0 01             	add    $0x1,%eax
  403588:	48 83 c2 01          	add    $0x1,%rdx
  40358c:	48 39 ca             	cmp    %rcx,%rdx
  40358f:	0f 84 80 3a 00 00    	je     407015 <yylex+0x42d5>
  403595:	80 3a 09             	cmpb   $0x9,(%rdx)
  403598:	75 eb                	jne    403585 <yylex+0x845>
  40359a:	8d 70 07             	lea    0x7(%rax),%esi
  40359d:	85 c0                	test   %eax,%eax
  40359f:	0f 48 c6             	cmovs  %esi,%eax
  4035a2:	c1 f8 03             	sar    $0x3,%eax
  4035a5:	8d 04 c5 08 00 00 00 	lea    0x8(,%rax,8),%eax
  4035ac:	eb da                	jmp    403588 <yylex+0x848>
  4035ae:	48 63 05 b3 9c 26 00 	movslq 0x269cb3(%rip),%rax        # 66d268 <yyleng>
  4035b5:	48 8b 0d a4 9c 26 00 	mov    0x269ca4(%rip),%rcx        # 66d260 <yytext>
  4035bc:	85 c0                	test   %eax,%eax
  4035be:	7e 14                	jle    4035d4 <yylex+0x894>
  4035c0:	31 d2                	xor    %edx,%edx
  4035c2:	80 7c 01 ff 0a       	cmpb   $0xa,-0x1(%rcx,%rax,1)
  4035c7:	48 8b 05 1a 81 26 00 	mov    0x26811a(%rip),%rax        # 66b6e8 <yy_current_buffer>
  4035ce:	0f 94 c2             	sete   %dl
  4035d1:	89 50 28             	mov    %edx,0x28(%rax)
  4035d4:	8b 05 a6 7c 26 00    	mov    0x267ca6(%rip),%eax        # 66b280 <CurrentFile>
  4035da:	48 8b 15 d7 80 26 00 	mov    0x2680d7(%rip),%rdx        # 66b6b8 <line_start>
  4035e1:	66 89 05 ae 9c 26 00 	mov    %ax,0x269cae(%rip)        # 66d296 <yylval+0x6>
  4035e8:	8b 05 de f3 23 00    	mov    0x23f3de(%rip),%eax        # 6429cc <Line>
  4035ee:	48 39 ca             	cmp    %rcx,%rdx
  4035f1:	89 05 99 9c 26 00    	mov    %eax,0x269c99(%rip)        # 66d290 <yylval>
  4035f7:	8b 05 87 7c 26 00    	mov    0x267c87(%rip),%eax        # 66b284 <CurrentIncludedp>
  4035fd:	89 05 95 9c 26 00    	mov    %eax,0x269c95(%rip)        # 66d298 <yylval+0x8>
  403603:	0f 83 16 39 00 00    	jae    406f1f <yylex+0x41df>
  403609:	31 c0                	xor    %eax,%eax
  40360b:	eb 10                	jmp    40361d <yylex+0x8dd>
  40360d:	83 c0 01             	add    $0x1,%eax
  403610:	48 83 c2 01          	add    $0x1,%rdx
  403614:	48 39 ca             	cmp    %rcx,%rdx
  403617:	0f 84 04 39 00 00    	je     406f21 <yylex+0x41e1>
  40361d:	80 3a 09             	cmpb   $0x9,(%rdx)
  403620:	75 eb                	jne    40360d <yylex+0x8cd>
  403622:	8d 70 07             	lea    0x7(%rax),%esi
  403625:	85 c0                	test   %eax,%eax
  403627:	0f 48 c6             	cmovs  %esi,%eax
  40362a:	c1 f8 03             	sar    $0x3,%eax
  40362d:	8d 04 c5 08 00 00 00 	lea    0x8(,%rax,8),%eax
  403634:	eb da                	jmp    403610 <yylex+0x8d0>
  403636:	48 63 05 2b 9c 26 00 	movslq 0x269c2b(%rip),%rax        # 66d268 <yyleng>
  40363d:	48 8b 0d 1c 9c 26 00 	mov    0x269c1c(%rip),%rcx        # 66d260 <yytext>
  403644:	85 c0                	test   %eax,%eax
  403646:	7e 14                	jle    40365c <yylex+0x91c>
  403648:	31 d2                	xor    %edx,%edx
  40364a:	80 7c 01 ff 0a       	cmpb   $0xa,-0x1(%rcx,%rax,1)
  40364f:	48 8b 05 92 80 26 00 	mov    0x268092(%rip),%rax        # 66b6e8 <yy_current_buffer>
  403656:	0f 94 c2             	sete   %dl
  403659:	89 50 28             	mov    %edx,0x28(%rax)
  40365c:	8b 05 1e 7c 26 00    	mov    0x267c1e(%rip),%eax        # 66b280 <CurrentFile>
  403662:	48 8b 15 4f 80 26 00 	mov    0x26804f(%rip),%rdx        # 66b6b8 <line_start>
  403669:	66 89 05 26 9c 26 00 	mov    %ax,0x269c26(%rip)        # 66d296 <yylval+0x6>
  403670:	8b 05 56 f3 23 00    	mov    0x23f356(%rip),%eax        # 6429cc <Line>
  403676:	48 39 d1             	cmp    %rdx,%rcx
  403679:	89 05 11 9c 26 00    	mov    %eax,0x269c11(%rip)        # 66d290 <yylval>
  40367f:	8b 05 ff 7b 26 00    	mov    0x267bff(%rip),%eax        # 66b284 <CurrentIncludedp>
  403685:	89 05 0d 9c 26 00    	mov    %eax,0x269c0d(%rip)        # 66d298 <yylval+0x8>
  40368b:	0f 86 52 39 00 00    	jbe    406fe3 <yylex+0x42a3>
  403691:	31 c0                	xor    %eax,%eax
  403693:	eb 10                	jmp    4036a5 <yylex+0x965>
  403695:	83 c0 01             	add    $0x1,%eax
  403698:	48 83 c2 01          	add    $0x1,%rdx
  40369c:	48 39 ca             	cmp    %rcx,%rdx
  40369f:	0f 84 40 39 00 00    	je     406fe5 <yylex+0x42a5>
  4036a5:	80 3a 09             	cmpb   $0x9,(%rdx)
  4036a8:	75 eb                	jne    403695 <yylex+0x955>
  4036aa:	8d 70 07             	lea    0x7(%rax),%esi
  4036ad:	85 c0                	test   %eax,%eax
  4036af:	0f 48 c6             	cmovs  %esi,%eax
  4036b2:	c1 f8 03             	sar    $0x3,%eax
  4036b5:	8d 04 c5 08 00 00 00 	lea    0x8(,%rax,8),%eax
  4036bc:	eb da                	jmp    403698 <yylex+0x958>
  4036be:	48 63 05 a3 9b 26 00 	movslq 0x269ba3(%rip),%rax        # 66d268 <yyleng>
  4036c5:	48 8b 0d 94 9b 26 00 	mov    0x269b94(%rip),%rcx        # 66d260 <yytext>
  4036cc:	85 c0                	test   %eax,%eax
  4036ce:	7e 14                	jle    4036e4 <yylex+0x9a4>
  4036d0:	31 d2                	xor    %edx,%edx
  4036d2:	80 7c 01 ff 0a       	cmpb   $0xa,-0x1(%rcx,%rax,1)
  4036d7:	48 8b 05 0a 80 26 00 	mov    0x26800a(%rip),%rax        # 66b6e8 <yy_current_buffer>
  4036de:	0f 94 c2             	sete   %dl
  4036e1:	89 50 28             	mov    %edx,0x28(%rax)
  4036e4:	8b 05 96 7b 26 00    	mov    0x267b96(%rip),%eax        # 66b280 <CurrentFile>
  4036ea:	48 8b 15 c7 7f 26 00 	mov    0x267fc7(%rip),%rdx        # 66b6b8 <line_start>
  4036f1:	66 89 05 9e 9b 26 00 	mov    %ax,0x269b9e(%rip)        # 66d296 <yylval+0x6>
  4036f8:	8b 05 ce f2 23 00    	mov    0x23f2ce(%rip),%eax        # 6429cc <Line>
  4036fe:	48 39 ca             	cmp    %rcx,%rdx
  403701:	89 05 89 9b 26 00    	mov    %eax,0x269b89(%rip)        # 66d290 <yylval>
  403707:	8b 05 77 7b 26 00    	mov    0x267b77(%rip),%eax        # 66b284 <CurrentIncludedp>
  40370d:	89 05 85 9b 26 00    	mov    %eax,0x269b85(%rip)        # 66d298 <yylval+0x8>
  403713:	0f 83 9a 38 00 00    	jae    406fb3 <yylex+0x4273>
  403719:	31 c0                	xor    %eax,%eax
  40371b:	eb 10                	jmp    40372d <yylex+0x9ed>
  40371d:	83 c0 01             	add    $0x1,%eax
  403720:	48 83 c2 01          	add    $0x1,%rdx
  403724:	48 39 ca             	cmp    %rcx,%rdx
  403727:	0f 84 88 38 00 00    	je     406fb5 <yylex+0x4275>
  40372d:	80 3a 09             	cmpb   $0x9,(%rdx)
  403730:	75 eb                	jne    40371d <yylex+0x9dd>
  403732:	8d 70 07             	lea    0x7(%rax),%esi
  403735:	85 c0                	test   %eax,%eax
  403737:	0f 48 c6             	cmovs  %esi,%eax
  40373a:	c1 f8 03             	sar    $0x3,%eax
  40373d:	8d 04 c5 08 00 00 00 	lea    0x8(,%rax,8),%eax
  403744:	eb da                	jmp    403720 <yylex+0x9e0>
  403746:	48 63 05 1b 9b 26 00 	movslq 0x269b1b(%rip),%rax        # 66d268 <yyleng>
  40374d:	48 8b 0d 0c 9b 26 00 	mov    0x269b0c(%rip),%rcx        # 66d260 <yytext>
  403754:	85 c0                	test   %eax,%eax
  403756:	7e 14                	jle    40376c <yylex+0xa2c>
  403758:	31 d2                	xor    %edx,%edx
  40375a:	80 7c 01 ff 0a       	cmpb   $0xa,-0x1(%rcx,%rax,1)
  40375f:	48 8b 05 82 7f 26 00 	mov    0x267f82(%rip),%rax        # 66b6e8 <yy_current_buffer>
  403766:	0f 94 c2             	sete   %dl
  403769:	89 50 28             	mov    %edx,0x28(%rax)
  40376c:	8b 05 0e 7b 26 00    	mov    0x267b0e(%rip),%eax        # 66b280 <CurrentFile>
  403772:	48 8b 15 3f 7f 26 00 	mov    0x267f3f(%rip),%rdx        # 66b6b8 <line_start>
  403779:	66 89 05 16 9b 26 00 	mov    %ax,0x269b16(%rip)        # 66d296 <yylval+0x6>
  403780:	8b 05 46 f2 23 00    	mov    0x23f246(%rip),%eax        # 6429cc <Line>
  403786:	48 39 d1             	cmp    %rdx,%rcx
  403789:	89 05 01 9b 26 00    	mov    %eax,0x269b01(%rip)        # 66d290 <yylval>
  40378f:	8b 05 ef 7a 26 00    	mov    0x267aef(%rip),%eax        # 66b284 <CurrentIncludedp>
  403795:	89 05 fd 9a 26 00    	mov    %eax,0x269afd(%rip)        # 66d298 <yylval+0x8>
  40379b:	0f 86 75 33 00 00    	jbe    406b16 <yylex+0x3dd6>
  4037a1:	31 c0                	xor    %eax,%eax
  4037a3:	eb 10                	jmp    4037b5 <yylex+0xa75>
  4037a5:	83 c0 01             	add    $0x1,%eax
  4037a8:	48 83 c2 01          	add    $0x1,%rdx
  4037ac:	48 39 ca             	cmp    %rcx,%rdx
  4037af:	0f 84 63 33 00 00    	je     406b18 <yylex+0x3dd8>
  4037b5:	80 3a 09             	cmpb   $0x9,(%rdx)
  4037b8:	75 eb                	jne    4037a5 <yylex+0xa65>
  4037ba:	8d 70 07             	lea    0x7(%rax),%esi
  4037bd:	85 c0                	test   %eax,%eax
  4037bf:	0f 48 c6             	cmovs  %esi,%eax
  4037c2:	c1 f8 03             	sar    $0x3,%eax
  4037c5:	8d 04 c5 08 00 00 00 	lea    0x8(,%rax,8),%eax
  4037cc:	eb da                	jmp    4037a8 <yylex+0xa68>
  4037ce:	48 63 05 93 9a 26 00 	movslq 0x269a93(%rip),%rax        # 66d268 <yyleng>
  4037d5:	48 8b 0d 84 9a 26 00 	mov    0x269a84(%rip),%rcx        # 66d260 <yytext>
  4037dc:	85 c0                	test   %eax,%eax
  4037de:	7e 14                	jle    4037f4 <yylex+0xab4>
  4037e0:	31 d2                	xor    %edx,%edx
  4037e2:	80 7c 01 ff 0a       	cmpb   $0xa,-0x1(%rcx,%rax,1)
  4037e7:	48 8b 05 fa 7e 26 00 	mov    0x267efa(%rip),%rax        # 66b6e8 <yy_current_buffer>
  4037ee:	0f 94 c2             	sete   %dl
  4037f1:	89 50 28             	mov    %edx,0x28(%rax)
  4037f4:	8b 05 86 7a 26 00    	mov    0x267a86(%rip),%eax        # 66b280 <CurrentFile>
  4037fa:	48 8b 15 b7 7e 26 00 	mov    0x267eb7(%rip),%rdx        # 66b6b8 <line_start>
  403801:	66 89 05 8e 9a 26 00 	mov    %ax,0x269a8e(%rip)        # 66d296 <yylval+0x6>
  403808:	8b 05 be f1 23 00    	mov    0x23f1be(%rip),%eax        # 6429cc <Line>
  40380e:	48 39 ca             	cmp    %rcx,%rdx
  403811:	89 05 79 9a 26 00    	mov    %eax,0x269a79(%rip)        # 66d290 <yylval>
  403817:	8b 05 67 7a 26 00    	mov    0x267a67(%rip),%eax        # 66b284 <CurrentIncludedp>
  40381d:	89 05 75 9a 26 00    	mov    %eax,0x269a75(%rip)        # 66d298 <yylval+0x8>
  403823:	0f 83 f1 3d 00 00    	jae    40761a <yylex+0x48da>
  403829:	31 c0                	xor    %eax,%eax
  40382b:	eb 10                	jmp    40383d <yylex+0xafd>
  40382d:	83 c0 01             	add    $0x1,%eax
  403830:	48 83 c2 01          	add    $0x1,%rdx
  403834:	48 39 ca             	cmp    %rcx,%rdx
  403837:	0f 84 df 3d 00 00    	je     40761c <yylex+0x48dc>
  40383d:	80 3a 09             	cmpb   $0x9,(%rdx)
  403840:	75 eb                	jne    40382d <yylex+0xaed>
  403842:	8d 70 07             	lea    0x7(%rax),%esi
  403845:	85 c0                	test   %eax,%eax
  403847:	0f 48 c6             	cmovs  %esi,%eax
  40384a:	c1 f8 03             	sar    $0x3,%eax
  40384d:	8d 04 c5 08 00 00 00 	lea    0x8(,%rax,8),%eax
  403854:	eb da                	jmp    403830 <yylex+0xaf0>
  403856:	48 63 05 0b 9a 26 00 	movslq 0x269a0b(%rip),%rax        # 66d268 <yyleng>
  40385d:	48 8b 0d fc 99 26 00 	mov    0x2699fc(%rip),%rcx        # 66d260 <yytext>
  403864:	85 c0                	test   %eax,%eax
  403866:	7e 14                	jle    40387c <yylex+0xb3c>
  403868:	31 d2                	xor    %edx,%edx
  40386a:	80 7c 01 ff 0a       	cmpb   $0xa,-0x1(%rcx,%rax,1)
  40386f:	48 8b 05 72 7e 26 00 	mov    0x267e72(%rip),%rax        # 66b6e8 <yy_current_buffer>
  403876:	0f 94 c2             	sete   %dl
  403879:	89 50 28             	mov    %edx,0x28(%rax)
  40387c:	8b 05 fe 79 26 00    	mov    0x2679fe(%rip),%eax        # 66b280 <CurrentFile>
  403882:	48 8b 15 2f 7e 26 00 	mov    0x267e2f(%rip),%rdx        # 66b6b8 <line_start>
  403889:	66 89 05 06 9a 26 00 	mov    %ax,0x269a06(%rip)        # 66d296 <yylval+0x6>
  403890:	8b 05 36 f1 23 00    	mov    0x23f136(%rip),%eax        # 6429cc <Line>
  403896:	48 39 ca             	cmp    %rcx,%rdx
  403899:	89 05 f1 99 26 00    	mov    %eax,0x2699f1(%rip)        # 66d290 <yylval>
  40389f:	8b 05 df 79 26 00    	mov    0x2679df(%rip),%eax        # 66b284 <CurrentIncludedp>
  4038a5:	89 05 ed 99 26 00    	mov    %eax,0x2699ed(%rip)        # 66d298 <yylval+0x8>
  4038ab:	0f 83 d7 3b 00 00    	jae    407488 <yylex+0x4748>
  4038b1:	31 c0                	xor    %eax,%eax
  4038b3:	eb 10                	jmp    4038c5 <yylex+0xb85>
  4038b5:	83 c0 01             	add    $0x1,%eax
  4038b8:	48 83 c2 01          	add    $0x1,%rdx
  4038bc:	48 39 ca             	cmp    %rcx,%rdx
  4038bf:	0f 84 c5 3b 00 00    	je     40748a <yylex+0x474a>
  4038c5:	80 3a 09             	cmpb   $0x9,(%rdx)
  4038c8:	75 eb                	jne    4038b5 <yylex+0xb75>
  4038ca:	8d 70 07             	lea    0x7(%rax),%esi
  4038cd:	85 c0                	test   %eax,%eax
  4038cf:	0f 48 c6             	cmovs  %esi,%eax
  4038d2:	c1 f8 03             	sar    $0x3,%eax
  4038d5:	8d 04 c5 08 00 00 00 	lea    0x8(,%rax,8),%eax
  4038dc:	eb da                	jmp    4038b8 <yylex+0xb78>
  4038de:	48 63 05 83 99 26 00 	movslq 0x269983(%rip),%rax        # 66d268 <yyleng>
  4038e5:	48 8b 0d 74 99 26 00 	mov    0x269974(%rip),%rcx        # 66d260 <yytext>
  4038ec:	85 c0                	test   %eax,%eax
  4038ee:	7e 14                	jle    403904 <yylex+0xbc4>
  4038f0:	31 d2                	xor    %edx,%edx
  4038f2:	80 7c 01 ff 0a       	cmpb   $0xa,-0x1(%rcx,%rax,1)
  4038f7:	48 8b 05 ea 7d 26 00 	mov    0x267dea(%rip),%rax        # 66b6e8 <yy_current_buffer>
  4038fe:	0f 94 c2             	sete   %dl
  403901:	89 50 28             	mov    %edx,0x28(%rax)
  403904:	8b 05 76 79 26 00    	mov    0x267976(%rip),%eax        # 66b280 <CurrentFile>
  40390a:	48 8b 15 a7 7d 26 00 	mov    0x267da7(%rip),%rdx        # 66b6b8 <line_start>
  403911:	66 89 05 7e 99 26 00 	mov    %ax,0x26997e(%rip)        # 66d296 <yylval+0x6>
  403918:	8b 05 ae f0 23 00    	mov    0x23f0ae(%rip),%eax        # 6429cc <Line>
  40391e:	48 39 ca             	cmp    %rcx,%rdx
  403921:	89 05 69 99 26 00    	mov    %eax,0x269969(%rip)        # 66d290 <yylval>
  403927:	8b 05 57 79 26 00    	mov    0x267957(%rip),%eax        # 66b284 <CurrentIncludedp>
  40392d:	89 05 65 99 26 00    	mov    %eax,0x269965(%rip)        # 66d298 <yylval+0x8>
  403933:	0f 83 24 3b 00 00    	jae    40745d <yylex+0x471d>
  403939:	31 c0                	xor    %eax,%eax
  40393b:	eb 10                	jmp    40394d <yylex+0xc0d>
  40393d:	83 c0 01             	add    $0x1,%eax
  403940:	48 83 c2 01          	add    $0x1,%rdx
  403944:	48 39 ca             	cmp    %rcx,%rdx
  403947:	0f 84 12 3b 00 00    	je     40745f <yylex+0x471f>
  40394d:	80 3a 09             	cmpb   $0x9,(%rdx)
  403950:	75 eb                	jne    40393d <yylex+0xbfd>
  403952:	8d 70 07             	lea    0x7(%rax),%esi
  403955:	85 c0                	test   %eax,%eax
  403957:	0f 48 c6             	cmovs  %esi,%eax
  40395a:	c1 f8 03             	sar    $0x3,%eax
  40395d:	8d 04 c5 08 00 00 00 	lea    0x8(,%rax,8),%eax
  403964:	eb da                	jmp    403940 <yylex+0xc00>
  403966:	48 63 05 fb 98 26 00 	movslq 0x2698fb(%rip),%rax        # 66d268 <yyleng>
  40396d:	48 8b 0d ec 98 26 00 	mov    0x2698ec(%rip),%rcx        # 66d260 <yytext>
  403974:	85 c0                	test   %eax,%eax
  403976:	7e 14                	jle    40398c <yylex+0xc4c>
  403978:	31 d2                	xor    %edx,%edx
  40397a:	80 7c 01 ff 0a       	cmpb   $0xa,-0x1(%rcx,%rax,1)
  40397f:	48 8b 05 62 7d 26 00 	mov    0x267d62(%rip),%rax        # 66b6e8 <yy_current_buffer>
  403986:	0f 94 c2             	sete   %dl
  403989:	89 50 28             	mov    %edx,0x28(%rax)
  40398c:	8b 05 ee 78 26 00    	mov    0x2678ee(%rip),%eax        # 66b280 <CurrentFile>
  403992:	48 8b 15 1f 7d 26 00 	mov    0x267d1f(%rip),%rdx        # 66b6b8 <line_start>
  403999:	66 89 05 f6 98 26 00 	mov    %ax,0x2698f6(%rip)        # 66d296 <yylval+0x6>
  4039a0:	8b 05 26 f0 23 00    	mov    0x23f026(%rip),%eax        # 6429cc <Line>
  4039a6:	48 39 ca             	cmp    %rcx,%rdx
  4039a9:	89 05 e1 98 26 00    	mov    %eax,0x2698e1(%rip)        # 66d290 <yylval>
  4039af:	8b 05 cf 78 26 00    	mov    0x2678cf(%rip),%eax        # 66b284 <CurrentIncludedp>
  4039b5:	89 05 dd 98 26 00    	mov    %eax,0x2698dd(%rip)        # 66d298 <yylval+0x8>
  4039bb:	0f 83 84 3c 00 00    	jae    407645 <yylex+0x4905>
  4039c1:	31 c0                	xor    %eax,%eax
  4039c3:	eb 10                	jmp    4039d5 <yylex+0xc95>
  4039c5:	83 c0 01             	add    $0x1,%eax
  4039c8:	48 83 c2 01          	add    $0x1,%rdx
  4039cc:	48 39 ca             	cmp    %rcx,%rdx
  4039cf:	0f 84 72 3c 00 00    	je     407647 <yylex+0x4907>
  4039d5:	80 3a 09             	cmpb   $0x9,(%rdx)
  4039d8:	75 eb                	jne    4039c5 <yylex+0xc85>
  4039da:	8d 70 07             	lea    0x7(%rax),%esi
  4039dd:	85 c0                	test   %eax,%eax
  4039df:	0f 48 c6             	cmovs  %esi,%eax
  4039e2:	c1 f8 03             	sar    $0x3,%eax
  4039e5:	8d 04 c5 08 00 00 00 	lea    0x8(,%rax,8),%eax
  4039ec:	eb da                	jmp    4039c8 <yylex+0xc88>
  4039ee:	48 63 05 73 98 26 00 	movslq 0x269873(%rip),%rax        # 66d268 <yyleng>
  4039f5:	48 8b 0d 64 98 26 00 	mov    0x269864(%rip),%rcx        # 66d260 <yytext>
  4039fc:	85 c0                	test   %eax,%eax
  4039fe:	7e 14                	jle    403a14 <yylex+0xcd4>
  403a00:	31 d2                	xor    %edx,%edx
  403a02:	80 7c 01 ff 0a       	cmpb   $0xa,-0x1(%rcx,%rax,1)
  403a07:	48 8b 05 da 7c 26 00 	mov    0x267cda(%rip),%rax        # 66b6e8 <yy_current_buffer>
  403a0e:	0f 94 c2             	sete   %dl
  403a11:	89 50 28             	mov    %edx,0x28(%rax)
  403a14:	8b 05 66 78 26 00    	mov    0x267866(%rip),%eax        # 66b280 <CurrentFile>
  403a1a:	48 8b 15 97 7c 26 00 	mov    0x267c97(%rip),%rdx        # 66b6b8 <line_start>
  403a21:	66 89 05 6e 98 26 00 	mov    %ax,0x26986e(%rip)        # 66d296 <yylval+0x6>
  403a28:	8b 05 9e ef 23 00    	mov    0x23ef9e(%rip),%eax        # 6429cc <Line>
  403a2e:	48 39 ca             	cmp    %rcx,%rdx
  403a31:	89 05 59 98 26 00    	mov    %eax,0x269859(%rip)        # 66d290 <yylval>
  403a37:	8b 05 47 78 26 00    	mov    0x267847(%rip),%eax        # 66b284 <CurrentIncludedp>
  403a3d:	89 05 55 98 26 00    	mov    %eax,0x269855(%rip)        # 66d298 <yylval+0x8>
  403a43:	0f 83 6a 3a 00 00    	jae    4074b3 <yylex+0x4773>
  403a49:	31 c0                	xor    %eax,%eax
  403a4b:	eb 10                	jmp    403a5d <yylex+0xd1d>
  403a4d:	83 c0 01             	add    $0x1,%eax
  403a50:	48 83 c2 01          	add    $0x1,%rdx
  403a54:	48 39 ca             	cmp    %rcx,%rdx
  403a57:	0f 84 58 3a 00 00    	je     4074b5 <yylex+0x4775>
  403a5d:	80 3a 09             	cmpb   $0x9,(%rdx)
  403a60:	75 eb                	jne    403a4d <yylex+0xd0d>
  403a62:	8d 70 07             	lea    0x7(%rax),%esi
  403a65:	85 c0                	test   %eax,%eax
  403a67:	0f 48 c6             	cmovs  %esi,%eax
  403a6a:	c1 f8 03             	sar    $0x3,%eax
  403a6d:	8d 04 c5 08 00 00 00 	lea    0x8(,%rax,8),%eax
  403a74:	eb da                	jmp    403a50 <yylex+0xd10>
  403a76:	48 63 05 eb 97 26 00 	movslq 0x2697eb(%rip),%rax        # 66d268 <yyleng>
  403a7d:	48 8b 0d dc 97 26 00 	mov    0x2697dc(%rip),%rcx        # 66d260 <yytext>
  403a84:	85 c0                	test   %eax,%eax
  403a86:	7e 14                	jle    403a9c <yylex+0xd5c>
  403a88:	31 d2                	xor    %edx,%edx
  403a8a:	80 7c 01 ff 0a       	cmpb   $0xa,-0x1(%rcx,%rax,1)
  403a8f:	48 8b 05 52 7c 26 00 	mov    0x267c52(%rip),%rax        # 66b6e8 <yy_current_buffer>
  403a96:	0f 94 c2             	sete   %dl
  403a99:	89 50 28             	mov    %edx,0x28(%rax)
  403a9c:	8b 05 de 77 26 00    	mov    0x2677de(%rip),%eax        # 66b280 <CurrentFile>
  403aa2:	48 8b 15 0f 7c 26 00 	mov    0x267c0f(%rip),%rdx        # 66b6b8 <line_start>
  403aa9:	66 89 05 e6 97 26 00 	mov    %ax,0x2697e6(%rip)        # 66d296 <yylval+0x6>
  403ab0:	8b 05 16 ef 23 00    	mov    0x23ef16(%rip),%eax        # 6429cc <Line>
  403ab6:	48 39 ca             	cmp    %rcx,%rdx
  403ab9:	89 05 d1 97 26 00    	mov    %eax,0x2697d1(%rip)        # 66d290 <yylval>
  403abf:	8b 05 bf 77 26 00    	mov    0x2677bf(%rip),%eax        # 66b284 <CurrentIncludedp>
  403ac5:	89 05 cd 97 26 00    	mov    %eax,0x2697cd(%rip)        # 66d298 <yylval+0x8>
  403acb:	0f 83 1e 3b 00 00    	jae    4075ef <yylex+0x48af>
  403ad1:	31 c0                	xor    %eax,%eax
  403ad3:	eb 10                	jmp    403ae5 <yylex+0xda5>
  403ad5:	83 c0 01             	add    $0x1,%eax
  403ad8:	48 83 c2 01          	add    $0x1,%rdx
  403adc:	48 39 ca             	cmp    %rcx,%rdx
  403adf:	0f 84 0c 3b 00 00    	je     4075f1 <yylex+0x48b1>
  403ae5:	80 3a 09             	cmpb   $0x9,(%rdx)
  403ae8:	75 eb                	jne    403ad5 <yylex+0xd95>
  403aea:	8d 70 07             	lea    0x7(%rax),%esi
  403aed:	85 c0                	test   %eax,%eax
  403aef:	0f 48 c6             	cmovs  %esi,%eax
  403af2:	c1 f8 03             	sar    $0x3,%eax
  403af5:	8d 04 c5 08 00 00 00 	lea    0x8(,%rax,8),%eax
  403afc:	eb da                	jmp    403ad8 <yylex+0xd98>
  403afe:	48 63 05 63 97 26 00 	movslq 0x269763(%rip),%rax        # 66d268 <yyleng>
  403b05:	48 8b 0d 54 97 26 00 	mov    0x269754(%rip),%rcx        # 66d260 <yytext>
  403b0c:	85 c0                	test   %eax,%eax
  403b0e:	7e 14                	jle    403b24 <yylex+0xde4>
  403b10:	31 d2                	xor    %edx,%edx
  403b12:	80 7c 01 ff 0a       	cmpb   $0xa,-0x1(%rcx,%rax,1)
  403b17:	48 8b 05 ca 7b 26 00 	mov    0x267bca(%rip),%rax        # 66b6e8 <yy_current_buffer>
  403b1e:	0f 94 c2             	sete   %dl
  403b21:	89 50 28             	mov    %edx,0x28(%rax)
  403b24:	8b 05 56 77 26 00    	mov    0x267756(%rip),%eax        # 66b280 <CurrentFile>
  403b2a:	48 8b 15 87 7b 26 00 	mov    0x267b87(%rip),%rdx        # 66b6b8 <line_start>
  403b31:	66 89 05 5e 97 26 00 	mov    %ax,0x26975e(%rip)        # 66d296 <yylval+0x6>
  403b38:	8b 05 8e ee 23 00    	mov    0x23ee8e(%rip),%eax        # 6429cc <Line>
  403b3e:	48 39 ca             	cmp    %rcx,%rdx
  403b41:	89 05 49 97 26 00    	mov    %eax,0x269749(%rip)        # 66d290 <yylval>
  403b47:	8b 05 37 77 26 00    	mov    0x267737(%rip),%eax        # 66b284 <CurrentIncludedp>
  403b4d:	89 05 45 97 26 00    	mov    %eax,0x269745(%rip)        # 66d298 <yylval+0x8>
  403b53:	0f 83 6b 3a 00 00    	jae    4075c4 <yylex+0x4884>
  403b59:	31 c0                	xor    %eax,%eax
  403b5b:	eb 10                	jmp    403b6d <yylex+0xe2d>
  403b5d:	83 c0 01             	add    $0x1,%eax
  403b60:	48 83 c2 01          	add    $0x1,%rdx
  403b64:	48 39 ca             	cmp    %rcx,%rdx
  403b67:	0f 84 59 3a 00 00    	je     4075c6 <yylex+0x4886>
  403b6d:	80 3a 09             	cmpb   $0x9,(%rdx)
  403b70:	75 eb                	jne    403b5d <yylex+0xe1d>
  403b72:	8d 70 07             	lea    0x7(%rax),%esi
  403b75:	85 c0                	test   %eax,%eax
  403b77:	0f 48 c6             	cmovs  %esi,%eax
  403b7a:	c1 f8 03             	sar    $0x3,%eax
  403b7d:	8d 04 c5 08 00 00 00 	lea    0x8(,%rax,8),%eax
  403b84:	eb da                	jmp    403b60 <yylex+0xe20>
  403b86:	48 63 05 db 96 26 00 	movslq 0x2696db(%rip),%rax        # 66d268 <yyleng>
  403b8d:	48 8b 0d cc 96 26 00 	mov    0x2696cc(%rip),%rcx        # 66d260 <yytext>
  403b94:	85 c0                	test   %eax,%eax
  403b96:	7e 14                	jle    403bac <yylex+0xe6c>
  403b98:	31 d2                	xor    %edx,%edx
  403b9a:	80 7c 01 ff 0a       	cmpb   $0xa,-0x1(%rcx,%rax,1)
  403b9f:	48 8b 05 42 7b 26 00 	mov    0x267b42(%rip),%rax        # 66b6e8 <yy_current_buffer>
  403ba6:	0f 94 c2             	sete   %dl
  403ba9:	89 50 28             	mov    %edx,0x28(%rax)
  403bac:	8b 05 ce 76 26 00    	mov    0x2676ce(%rip),%eax        # 66b280 <CurrentFile>
  403bb2:	48 8b 15 ff 7a 26 00 	mov    0x267aff(%rip),%rdx        # 66b6b8 <line_start>
  403bb9:	66 89 05 d6 96 26 00 	mov    %ax,0x2696d6(%rip)        # 66d296 <yylval+0x6>
  403bc0:	8b 05 06 ee 23 00    	mov    0x23ee06(%rip),%eax        # 6429cc <Line>
  403bc6:	48 39 ca             	cmp    %rcx,%rdx
  403bc9:	89 05 c1 96 26 00    	mov    %eax,0x2696c1(%rip)        # 66d290 <yylval>
  403bcf:	8b 05 af 76 26 00    	mov    0x2676af(%rip),%eax        # 66b284 <CurrentIncludedp>
  403bd5:	89 05 bd 96 26 00    	mov    %eax,0x2696bd(%rip)        # 66d298 <yylval+0x8>
  403bdb:	0f 83 fd 38 00 00    	jae    4074de <yylex+0x479e>
  403be1:	31 c0                	xor    %eax,%eax
  403be3:	eb 10                	jmp    403bf5 <yylex+0xeb5>
  403be5:	83 c0 01             	add    $0x1,%eax
  403be8:	48 83 c2 01          	add    $0x1,%rdx
  403bec:	48 39 ca             	cmp    %rcx,%rdx
  403bef:	0f 84 eb 38 00 00    	je     4074e0 <yylex+0x47a0>
  403bf5:	80 3a 09             	cmpb   $0x9,(%rdx)
  403bf8:	75 eb                	jne    403be5 <yylex+0xea5>
  403bfa:	8d 70 07             	lea    0x7(%rax),%esi
  403bfd:	85 c0                	test   %eax,%eax
  403bff:	0f 48 c6             	cmovs  %esi,%eax
  403c02:	c1 f8 03             	sar    $0x3,%eax
  403c05:	8d 04 c5 08 00 00 00 	lea    0x8(,%rax,8),%eax
  403c0c:	eb da                	jmp    403be8 <yylex+0xea8>
  403c0e:	48 63 05 53 96 26 00 	movslq 0x269653(%rip),%rax        # 66d268 <yyleng>
  403c15:	48 8b 0d 44 96 26 00 	mov    0x269644(%rip),%rcx        # 66d260 <yytext>
  403c1c:	85 c0                	test   %eax,%eax
  403c1e:	7e 14                	jle    403c34 <yylex+0xef4>
  403c20:	31 d2                	xor    %edx,%edx
  403c22:	80 7c 01 ff 0a       	cmpb   $0xa,-0x1(%rcx,%rax,1)
  403c27:	48 8b 05 ba 7a 26 00 	mov    0x267aba(%rip),%rax        # 66b6e8 <yy_current_buffer>
  403c2e:	0f 94 c2             	sete   %dl
  403c31:	89 50 28             	mov    %edx,0x28(%rax)
  403c34:	8b 05 46 76 26 00    	mov    0x267646(%rip),%eax        # 66b280 <CurrentFile>
  403c3a:	48 8b 15 77 7a 26 00 	mov    0x267a77(%rip),%rdx        # 66b6b8 <line_start>
  403c41:	66 89 05 4e 96 26 00 	mov    %ax,0x26964e(%rip)        # 66d296 <yylval+0x6>
  403c48:	8b 05 7e ed 23 00    	mov    0x23ed7e(%rip),%eax        # 6429cc <Line>
  403c4e:	48 39 ca             	cmp    %rcx,%rdx
  403c51:	89 05 39 96 26 00    	mov    %eax,0x269639(%rip)        # 66d290 <yylval>
  403c57:	8b 05 27 76 26 00    	mov    0x267627(%rip),%eax        # 66b284 <CurrentIncludedp>
  403c5d:	89 05 35 96 26 00    	mov    %eax,0x269635(%rip)        # 66d298 <yylval+0x8>
  403c63:	0f 83 71 37 00 00    	jae    4073da <yylex+0x469a>
  403c69:	31 c0                	xor    %eax,%eax
  403c6b:	eb 10                	jmp    403c7d <yylex+0xf3d>
  403c6d:	83 c0 01             	add    $0x1,%eax
  403c70:	48 83 c2 01          	add    $0x1,%rdx
  403c74:	48 39 ca             	cmp    %rcx,%rdx
  403c77:	0f 84 5f 37 00 00    	je     4073dc <yylex+0x469c>
  403c7d:	80 3a 09             	cmpb   $0x9,(%rdx)
  403c80:	75 eb                	jne    403c6d <yylex+0xf2d>
  403c82:	8d 70 07             	lea    0x7(%rax),%esi
  403c85:	85 c0                	test   %eax,%eax
  403c87:	0f 48 c6             	cmovs  %esi,%eax
  403c8a:	c1 f8 03             	sar    $0x3,%eax
  403c8d:	8d 04 c5 08 00 00 00 	lea    0x8(,%rax,8),%eax
  403c94:	eb da                	jmp    403c70 <yylex+0xf30>
  403c96:	48 63 05 cb 95 26 00 	movslq 0x2695cb(%rip),%rax        # 66d268 <yyleng>
  403c9d:	48 8b 0d bc 95 26 00 	mov    0x2695bc(%rip),%rcx        # 66d260 <yytext>
  403ca4:	85 c0                	test   %eax,%eax
  403ca6:	7e 14                	jle    403cbc <yylex+0xf7c>
  403ca8:	31 d2                	xor    %edx,%edx
  403caa:	80 7c 01 ff 0a       	cmpb   $0xa,-0x1(%rcx,%rax,1)
  403caf:	48 8b 05 32 7a 26 00 	mov    0x267a32(%rip),%rax        # 66b6e8 <yy_current_buffer>
  403cb6:	0f 94 c2             	sete   %dl
  403cb9:	89 50 28             	mov    %edx,0x28(%rax)
  403cbc:	8b 05 be 75 26 00    	mov    0x2675be(%rip),%eax        # 66b280 <CurrentFile>
  403cc2:	48 8b 15 ef 79 26 00 	mov    0x2679ef(%rip),%rdx        # 66b6b8 <line_start>
  403cc9:	66 89 05 c6 95 26 00 	mov    %ax,0x2695c6(%rip)        # 66d296 <yylval+0x6>
  403cd0:	8b 05 f6 ec 23 00    	mov    0x23ecf6(%rip),%eax        # 6429cc <Line>
  403cd6:	48 39 ca             	cmp    %rcx,%rdx
  403cd9:	89 05 b1 95 26 00    	mov    %eax,0x2695b1(%rip)        # 66d290 <yylval>
  403cdf:	8b 05 9f 75 26 00    	mov    0x26759f(%rip),%eax        # 66b284 <CurrentIncludedp>
  403ce5:	89 05 ad 95 26 00    	mov    %eax,0x2695ad(%rip)        # 66d298 <yylval+0x8>
  403ceb:	0f 83 a6 38 00 00    	jae    407597 <yylex+0x4857>
  403cf1:	31 c0                	xor    %eax,%eax
  403cf3:	eb 10                	jmp    403d05 <yylex+0xfc5>
  403cf5:	83 c0 01             	add    $0x1,%eax
  403cf8:	48 83 c2 01          	add    $0x1,%rdx
  403cfc:	48 39 ca             	cmp    %rcx,%rdx
  403cff:	0f 84 94 38 00 00    	je     407599 <yylex+0x4859>
  403d05:	80 3a 09             	cmpb   $0x9,(%rdx)
  403d08:	75 eb                	jne    403cf5 <yylex+0xfb5>
  403d0a:	8d 70 07             	lea    0x7(%rax),%esi
  403d0d:	85 c0                	test   %eax,%eax
  403d0f:	0f 48 c6             	cmovs  %esi,%eax
  403d12:	c1 f8 03             	sar    $0x3,%eax
  403d15:	8d 04 c5 08 00 00 00 	lea    0x8(,%rax,8),%eax
  403d1c:	eb da                	jmp    403cf8 <yylex+0xfb8>
  403d1e:	48 63 05 43 95 26 00 	movslq 0x269543(%rip),%rax        # 66d268 <yyleng>
  403d25:	48 8b 0d 34 95 26 00 	mov    0x269534(%rip),%rcx        # 66d260 <yytext>
  403d2c:	85 c0                	test   %eax,%eax
  403d2e:	7e 14                	jle    403d44 <yylex+0x1004>
  403d30:	31 d2                	xor    %edx,%edx
  403d32:	80 7c 01 ff 0a       	cmpb   $0xa,-0x1(%rcx,%rax,1)
  403d37:	48 8b 05 aa 79 26 00 	mov    0x2679aa(%rip),%rax        # 66b6e8 <yy_current_buffer>
  403d3e:	0f 94 c2             	sete   %dl
  403d41:	89 50 28             	mov    %edx,0x28(%rax)
  403d44:	8b 05 36 75 26 00    	mov    0x267536(%rip),%eax        # 66b280 <CurrentFile>
  403d4a:	48 8b 15 67 79 26 00 	mov    0x267967(%rip),%rdx        # 66b6b8 <line_start>
  403d51:	66 89 05 3e 95 26 00 	mov    %ax,0x26953e(%rip)        # 66d296 <yylval+0x6>
  403d58:	8b 05 6e ec 23 00    	mov    0x23ec6e(%rip),%eax        # 6429cc <Line>
  403d5e:	48 39 ca             	cmp    %rcx,%rdx
  403d61:	89 05 29 95 26 00    	mov    %eax,0x269529(%rip)        # 66d290 <yylval>
  403d67:	8b 05 17 75 26 00    	mov    0x267517(%rip),%eax        # 66b284 <CurrentIncludedp>
  403d6d:	89 05 25 95 26 00    	mov    %eax,0x269525(%rip)        # 66d298 <yylval+0x8>
  403d73:	0f 83 f1 37 00 00    	jae    40756a <yylex+0x482a>
  403d79:	31 c0                	xor    %eax,%eax
  403d7b:	eb 10                	jmp    403d8d <yylex+0x104d>
  403d7d:	83 c0 01             	add    $0x1,%eax
  403d80:	48 83 c2 01          	add    $0x1,%rdx
  403d84:	48 39 ca             	cmp    %rcx,%rdx
  403d87:	0f 84 df 37 00 00    	je     40756c <yylex+0x482c>
  403d8d:	80 3a 09             	cmpb   $0x9,(%rdx)
  403d90:	75 eb                	jne    403d7d <yylex+0x103d>
  403d92:	8d 70 07             	lea    0x7(%rax),%esi
  403d95:	85 c0                	test   %eax,%eax
  403d97:	0f 48 c6             	cmovs  %esi,%eax
  403d9a:	c1 f8 03             	sar    $0x3,%eax
  403d9d:	8d 04 c5 08 00 00 00 	lea    0x8(,%rax,8),%eax
  403da4:	eb da                	jmp    403d80 <yylex+0x1040>
  403da6:	48 63 05 bb 94 26 00 	movslq 0x2694bb(%rip),%rax        # 66d268 <yyleng>
  403dad:	48 8b 3d ac 94 26 00 	mov    0x2694ac(%rip),%rdi        # 66d260 <yytext>
  403db4:	85 c0                	test   %eax,%eax
  403db6:	7e 14                	jle    403dcc <yylex+0x108c>
  403db8:	31 d2                	xor    %edx,%edx
  403dba:	80 7c 07 ff 0a       	cmpb   $0xa,-0x1(%rdi,%rax,1)
  403dbf:	48 8b 05 22 79 26 00 	mov    0x267922(%rip),%rax        # 66b6e8 <yy_current_buffer>
  403dc6:	0f 94 c2             	sete   %dl
  403dc9:	89 50 28             	mov    %edx,0x28(%rax)
  403dcc:	8b 05 ae 74 26 00    	mov    0x2674ae(%rip),%eax        # 66b280 <CurrentFile>
  403dd2:	48 8b 15 df 78 26 00 	mov    0x2678df(%rip),%rdx        # 66b6b8 <line_start>
  403dd9:	66 89 05 b6 94 26 00 	mov    %ax,0x2694b6(%rip)        # 66d296 <yylval+0x6>
  403de0:	8b 05 e6 eb 23 00    	mov    0x23ebe6(%rip),%eax        # 6429cc <Line>
  403de6:	48 39 fa             	cmp    %rdi,%rdx
  403de9:	89 05 a1 94 26 00    	mov    %eax,0x2694a1(%rip)        # 66d290 <yylval>
  403def:	8b 05 8f 74 26 00    	mov    0x26748f(%rip),%eax        # 66b284 <CurrentIncludedp>
  403df5:	89 05 9d 94 26 00    	mov    %eax,0x26949d(%rip)        # 66d298 <yylval+0x8>
  403dfb:	0f 83 c0 2a 00 00    	jae    4068c1 <yylex+0x3b81>
  403e01:	31 c0                	xor    %eax,%eax
  403e03:	eb 10                	jmp    403e15 <yylex+0x10d5>
  403e05:	83 c0 01             	add    $0x1,%eax
  403e08:	48 83 c2 01          	add    $0x1,%rdx
  403e0c:	48 39 fa             	cmp    %rdi,%rdx
  403e0f:	0f 84 ae 2a 00 00    	je     4068c3 <yylex+0x3b83>
  403e15:	80 3a 09             	cmpb   $0x9,(%rdx)
  403e18:	75 eb                	jne    403e05 <yylex+0x10c5>
  403e1a:	8d 48 07             	lea    0x7(%rax),%ecx
  403e1d:	85 c0                	test   %eax,%eax
  403e1f:	0f 48 c1             	cmovs  %ecx,%eax
  403e22:	c1 f8 03             	sar    $0x3,%eax
  403e25:	8d 04 c5 08 00 00 00 	lea    0x8(,%rax,8),%eax
  403e2c:	eb da                	jmp    403e08 <yylex+0x10c8>
  403e2e:	48 63 05 33 94 26 00 	movslq 0x269433(%rip),%rax        # 66d268 <yyleng>
  403e35:	48 8b 0d 24 94 26 00 	mov    0x269424(%rip),%rcx        # 66d260 <yytext>
  403e3c:	85 c0                	test   %eax,%eax
  403e3e:	7e 14                	jle    403e54 <yylex+0x1114>
  403e40:	31 d2                	xor    %edx,%edx
  403e42:	80 7c 01 ff 0a       	cmpb   $0xa,-0x1(%rcx,%rax,1)
  403e47:	48 8b 05 9a 78 26 00 	mov    0x26789a(%rip),%rax        # 66b6e8 <yy_current_buffer>
  403e4e:	0f 94 c2             	sete   %dl
  403e51:	89 50 28             	mov    %edx,0x28(%rax)
  403e54:	8b 05 26 74 26 00    	mov    0x267426(%rip),%eax        # 66b280 <CurrentFile>
  403e5a:	48 8b 15 57 78 26 00 	mov    0x267857(%rip),%rdx        # 66b6b8 <line_start>
  403e61:	66 89 05 2e 94 26 00 	mov    %ax,0x26942e(%rip)        # 66d296 <yylval+0x6>
  403e68:	8b 05 5e eb 23 00    	mov    0x23eb5e(%rip),%eax        # 6429cc <Line>
  403e6e:	48 39 ca             	cmp    %rcx,%rdx
  403e71:	89 05 19 94 26 00    	mov    %eax,0x269419(%rip)        # 66d290 <yylval>
  403e77:	8b 05 07 74 26 00    	mov    0x267407(%rip),%eax        # 66b284 <CurrentIncludedp>
  403e7d:	89 05 15 94 26 00    	mov    %eax,0x269415(%rip)        # 66d298 <yylval+0x8>
  403e83:	0f 83 b4 36 00 00    	jae    40753d <yylex+0x47fd>
  403e89:	31 c0                	xor    %eax,%eax
  403e8b:	eb 10                	jmp    403e9d <yylex+0x115d>
  403e8d:	83 c0 01             	add    $0x1,%eax
  403e90:	48 83 c2 01          	add    $0x1,%rdx
  403e94:	48 39 ca             	cmp    %rcx,%rdx
  403e97:	0f 84 a2 36 00 00    	je     40753f <yylex+0x47ff>
  403e9d:	80 3a 09             	cmpb   $0x9,(%rdx)
  403ea0:	75 eb                	jne    403e8d <yylex+0x114d>
  403ea2:	8d 70 07             	lea    0x7(%rax),%esi
  403ea5:	85 c0                	test   %eax,%eax
  403ea7:	0f 48 c6             	cmovs  %esi,%eax
  403eaa:	c1 f8 03             	sar    $0x3,%eax
  403ead:	8d 04 c5 08 00 00 00 	lea    0x8(,%rax,8),%eax
  403eb4:	eb da                	jmp    403e90 <yylex+0x1150>
  403eb6:	48 63 05 ab 93 26 00 	movslq 0x2693ab(%rip),%rax        # 66d268 <yyleng>
  403ebd:	48 8b 3d 9c 93 26 00 	mov    0x26939c(%rip),%rdi        # 66d260 <yytext>
  403ec4:	85 c0                	test   %eax,%eax
  403ec6:	7e 14                	jle    403edc <yylex+0x119c>
  403ec8:	31 d2                	xor    %edx,%edx
  403eca:	80 7c 07 ff 0a       	cmpb   $0xa,-0x1(%rdi,%rax,1)
  403ecf:	48 8b 05 12 78 26 00 	mov    0x267812(%rip),%rax        # 66b6e8 <yy_current_buffer>
  403ed6:	0f 94 c2             	sete   %dl
  403ed9:	89 50 28             	mov    %edx,0x28(%rax)
  403edc:	8b 05 9e 73 26 00    	mov    0x26739e(%rip),%eax        # 66b280 <CurrentFile>
  403ee2:	48 8b 15 cf 77 26 00 	mov    0x2677cf(%rip),%rdx        # 66b6b8 <line_start>
  403ee9:	66 89 05 a6 93 26 00 	mov    %ax,0x2693a6(%rip)        # 66d296 <yylval+0x6>
  403ef0:	8b 05 d6 ea 23 00    	mov    0x23ead6(%rip),%eax        # 6429cc <Line>
  403ef6:	48 39 fa             	cmp    %rdi,%rdx
  403ef9:	89 05 91 93 26 00    	mov    %eax,0x269391(%rip)        # 66d290 <yylval>
  403eff:	8b 05 7f 73 26 00    	mov    0x26737f(%rip),%eax        # 66b284 <CurrentIncludedp>
  403f05:	89 05 8d 93 26 00    	mov    %eax,0x26938d(%rip)        # 66d298 <yylval+0x8>
  403f0b:	0f 83 b0 29 00 00    	jae    4068c1 <yylex+0x3b81>
  403f11:	31 c0                	xor    %eax,%eax
  403f13:	eb 10                	jmp    403f25 <yylex+0x11e5>
  403f15:	83 c0 01             	add    $0x1,%eax
  403f18:	48 83 c2 01          	add    $0x1,%rdx
  403f1c:	48 39 fa             	cmp    %rdi,%rdx
  403f1f:	0f 84 9e 29 00 00    	je     4068c3 <yylex+0x3b83>
  403f25:	80 3a 09             	cmpb   $0x9,(%rdx)
  403f28:	75 eb                	jne    403f15 <yylex+0x11d5>
  403f2a:	8d 48 07             	lea    0x7(%rax),%ecx
  403f2d:	85 c0                	test   %eax,%eax
  403f2f:	0f 48 c1             	cmovs  %ecx,%eax
  403f32:	c1 f8 03             	sar    $0x3,%eax
  403f35:	8d 04 c5 08 00 00 00 	lea    0x8(,%rax,8),%eax
  403f3c:	eb da                	jmp    403f18 <yylex+0x11d8>
  403f3e:	48 63 05 23 93 26 00 	movslq 0x269323(%rip),%rax        # 66d268 <yyleng>
  403f45:	48 8b 0d 14 93 26 00 	mov    0x269314(%rip),%rcx        # 66d260 <yytext>
  403f4c:	85 c0                	test   %eax,%eax
  403f4e:	7e 14                	jle    403f64 <yylex+0x1224>
  403f50:	31 d2                	xor    %edx,%edx
  403f52:	80 7c 01 ff 0a       	cmpb   $0xa,-0x1(%rcx,%rax,1)
  403f57:	48 8b 05 8a 77 26 00 	mov    0x26778a(%rip),%rax        # 66b6e8 <yy_current_buffer>
  403f5e:	0f 94 c2             	sete   %dl
  403f61:	89 50 28             	mov    %edx,0x28(%rax)
  403f64:	8b 05 16 73 26 00    	mov    0x267316(%rip),%eax        # 66b280 <CurrentFile>
  403f6a:	48 8b 15 47 77 26 00 	mov    0x267747(%rip),%rdx        # 66b6b8 <line_start>
  403f71:	66 89 05 1e 93 26 00 	mov    %ax,0x26931e(%rip)        # 66d296 <yylval+0x6>
  403f78:	8b 05 4e ea 23 00    	mov    0x23ea4e(%rip),%eax        # 6429cc <Line>
  403f7e:	48 39 ca             	cmp    %rcx,%rdx
  403f81:	89 05 09 93 26 00    	mov    %eax,0x269309(%rip)        # 66d290 <yylval>
  403f87:	8b 05 f7 72 26 00    	mov    0x2672f7(%rip),%eax        # 66b284 <CurrentIncludedp>
  403f8d:	89 05 05 93 26 00    	mov    %eax,0x269305(%rip)        # 66d298 <yylval+0x8>
  403f93:	0f 83 77 35 00 00    	jae    407510 <yylex+0x47d0>
  403f99:	31 c0                	xor    %eax,%eax
  403f9b:	eb 10                	jmp    403fad <yylex+0x126d>
  403f9d:	83 c0 01             	add    $0x1,%eax
  403fa0:	48 83 c2 01          	add    $0x1,%rdx
  403fa4:	48 39 ca             	cmp    %rcx,%rdx
  403fa7:	0f 84 65 35 00 00    	je     407512 <yylex+0x47d2>
  403fad:	80 3a 09             	cmpb   $0x9,(%rdx)
  403fb0:	75 eb                	jne    403f9d <yylex+0x125d>
  403fb2:	8d 70 07             	lea    0x7(%rax),%esi
  403fb5:	85 c0                	test   %eax,%eax
  403fb7:	0f 48 c6             	cmovs  %esi,%eax
  403fba:	c1 f8 03             	sar    $0x3,%eax
  403fbd:	8d 04 c5 08 00 00 00 	lea    0x8(,%rax,8),%eax
  403fc4:	eb da                	jmp    403fa0 <yylex+0x1260>
  403fc6:	48 63 05 9b 92 26 00 	movslq 0x26929b(%rip),%rax        # 66d268 <yyleng>
  403fcd:	48 8b 0d 8c 92 26 00 	mov    0x26928c(%rip),%rcx        # 66d260 <yytext>
  403fd4:	85 c0                	test   %eax,%eax
  403fd6:	7e 14                	jle    403fec <yylex+0x12ac>
  403fd8:	31 d2                	xor    %edx,%edx
  403fda:	80 7c 01 ff 0a       	cmpb   $0xa,-0x1(%rcx,%rax,1)
  403fdf:	48 8b 05 02 77 26 00 	mov    0x267702(%rip),%rax        # 66b6e8 <yy_current_buffer>
  403fe6:	0f 94 c2             	sete   %dl
  403fe9:	89 50 28             	mov    %edx,0x28(%rax)
  403fec:	8b 05 8e 72 26 00    	mov    0x26728e(%rip),%eax        # 66b280 <CurrentFile>
  403ff2:	48 8b 15 bf 76 26 00 	mov    0x2676bf(%rip),%rdx        # 66b6b8 <line_start>
  403ff9:	66 89 05 96 92 26 00 	mov    %ax,0x269296(%rip)        # 66d296 <yylval+0x6>
  404000:	8b 05 c6 e9 23 00    	mov    0x23e9c6(%rip),%eax        # 6429cc <Line>
  404006:	48 39 ca             	cmp    %rcx,%rdx
  404009:	89 05 81 92 26 00    	mov    %eax,0x269281(%rip)        # 66d290 <yylval>
  40400f:	8b 05 6f 72 26 00    	mov    0x26726f(%rip),%eax        # 66b284 <CurrentIncludedp>
  404015:	89 05 7d 92 26 00    	mov    %eax,0x26927d(%rip)        # 66d298 <yylval+0x8>
  40401b:	0f 83 11 34 00 00    	jae    407432 <yylex+0x46f2>
  404021:	31 c0                	xor    %eax,%eax
  404023:	eb 10                	jmp    404035 <yylex+0x12f5>
  404025:	83 c0 01             	add    $0x1,%eax
  404028:	48 83 c2 01          	add    $0x1,%rdx
  40402c:	48 39 ca             	cmp    %rcx,%rdx
  40402f:	0f 84 ff 33 00 00    	je     407434 <yylex+0x46f4>
  404035:	80 3a 09             	cmpb   $0x9,(%rdx)
  404038:	75 eb                	jne    404025 <yylex+0x12e5>
  40403a:	8d 70 07             	lea    0x7(%rax),%esi
  40403d:	85 c0                	test   %eax,%eax
  40403f:	0f 48 c6             	cmovs  %esi,%eax
  404042:	c1 f8 03             	sar    $0x3,%eax
  404045:	8d 04 c5 08 00 00 00 	lea    0x8(,%rax,8),%eax
  40404c:	eb da                	jmp    404028 <yylex+0x12e8>
  40404e:	48 63 05 13 92 26 00 	movslq 0x269213(%rip),%rax        # 66d268 <yyleng>
  404055:	48 8b 0d 04 92 26 00 	mov    0x269204(%rip),%rcx        # 66d260 <yytext>
  40405c:	85 c0                	test   %eax,%eax
  40405e:	7e 14                	jle    404074 <yylex+0x1334>
  404060:	31 d2                	xor    %edx,%edx
  404062:	80 7c 01 ff 0a       	cmpb   $0xa,-0x1(%rcx,%rax,1)
  404067:	48 8b 05 7a 76 26 00 	mov    0x26767a(%rip),%rax        # 66b6e8 <yy_current_buffer>
  40406e:	0f 94 c2             	sete   %dl
  404071:	89 50 28             	mov    %edx,0x28(%rax)
  404074:	8b 05 06 72 26 00    	mov    0x267206(%rip),%eax        # 66b280 <CurrentFile>
  40407a:	48 8b 15 37 76 26 00 	mov    0x267637(%rip),%rdx        # 66b6b8 <line_start>
  404081:	66 89 05 0e 92 26 00 	mov    %ax,0x26920e(%rip)        # 66d296 <yylval+0x6>
  404088:	8b 05 3e e9 23 00    	mov    0x23e93e(%rip),%eax        # 6429cc <Line>
  40408e:	48 39 ca             	cmp    %rcx,%rdx
  404091:	89 05 f9 91 26 00    	mov    %eax,0x2691f9(%rip)        # 66d290 <yylval>
  404097:	8b 05 e7 71 26 00    	mov    0x2671e7(%rip),%eax        # 66b284 <CurrentIncludedp>
  40409d:	89 05 f5 91 26 00    	mov    %eax,0x2691f5(%rip)        # 66d298 <yylval+0x8>
  4040a3:	0f 83 5e 33 00 00    	jae    407407 <yylex+0x46c7>
  4040a9:	31 c0                	xor    %eax,%eax
  4040ab:	eb 10                	jmp    4040bd <yylex+0x137d>
  4040ad:	83 c0 01             	add    $0x1,%eax
  4040b0:	48 83 c2 01          	add    $0x1,%rdx
  4040b4:	48 39 ca             	cmp    %rcx,%rdx
  4040b7:	0f 84 4c 33 00 00    	je     407409 <yylex+0x46c9>
  4040bd:	80 3a 09             	cmpb   $0x9,(%rdx)
  4040c0:	75 eb                	jne    4040ad <yylex+0x136d>
  4040c2:	8d 70 07             	lea    0x7(%rax),%esi
  4040c5:	85 c0                	test   %eax,%eax
  4040c7:	0f 48 c6             	cmovs  %esi,%eax
  4040ca:	c1 f8 03             	sar    $0x3,%eax
  4040cd:	8d 04 c5 08 00 00 00 	lea    0x8(,%rax,8),%eax
  4040d4:	eb da                	jmp    4040b0 <yylex+0x1370>
  4040d6:	48 63 05 8b 91 26 00 	movslq 0x26918b(%rip),%rax        # 66d268 <yyleng>
  4040dd:	48 8b 0d 7c 91 26 00 	mov    0x26917c(%rip),%rcx        # 66d260 <yytext>
  4040e4:	85 c0                	test   %eax,%eax
  4040e6:	7e 14                	jle    4040fc <yylex+0x13bc>
  4040e8:	31 d2                	xor    %edx,%edx
  4040ea:	80 7c 01 ff 0a       	cmpb   $0xa,-0x1(%rcx,%rax,1)
  4040ef:	48 8b 05 f2 75 26 00 	mov    0x2675f2(%rip),%rax        # 66b6e8 <yy_current_buffer>
  4040f6:	0f 94 c2             	sete   %dl
  4040f9:	89 50 28             	mov    %edx,0x28(%rax)
  4040fc:	8b 05 7e 71 26 00    	mov    0x26717e(%rip),%eax        # 66b280 <CurrentFile>
  404102:	48 8b 15 af 75 26 00 	mov    0x2675af(%rip),%rdx        # 66b6b8 <line_start>
  404109:	66 89 05 86 91 26 00 	mov    %ax,0x269186(%rip)        # 66d296 <yylval+0x6>
  404110:	8b 05 b6 e8 23 00    	mov    0x23e8b6(%rip),%eax        # 6429cc <Line>
  404116:	48 39 ca             	cmp    %rcx,%rdx
  404119:	89 05 71 91 26 00    	mov    %eax,0x269171(%rip)        # 66d290 <yylval>
  40411f:	8b 05 5f 71 26 00    	mov    0x26715f(%rip),%eax        # 66b284 <CurrentIncludedp>
  404125:	89 05 6d 91 26 00    	mov    %eax,0x26916d(%rip)        # 66d298 <yylval+0x8>
  40412b:	0f 83 f5 37 00 00    	jae    407926 <yylex+0x4be6>
  404131:	31 c0                	xor    %eax,%eax
  404133:	eb 10                	jmp    404145 <yylex+0x1405>
  404135:	83 c0 01             	add    $0x1,%eax
  404138:	48 83 c2 01          	add    $0x1,%rdx
  40413c:	48 39 ca             	cmp    %rcx,%rdx
  40413f:	0f 84 e3 37 00 00    	je     407928 <yylex+0x4be8>
  404145:	80 3a 09             	cmpb   $0x9,(%rdx)
  404148:	75 eb                	jne    404135 <yylex+0x13f5>
  40414a:	8d 70 07             	lea    0x7(%rax),%esi
  40414d:	85 c0                	test   %eax,%eax
  40414f:	0f 48 c6             	cmovs  %esi,%eax
  404152:	c1 f8 03             	sar    $0x3,%eax
  404155:	8d 04 c5 08 00 00 00 	lea    0x8(,%rax,8),%eax
  40415c:	eb da                	jmp    404138 <yylex+0x13f8>
  40415e:	48 63 05 03 91 26 00 	movslq 0x269103(%rip),%rax        # 66d268 <yyleng>
  404165:	48 8b 0d f4 90 26 00 	mov    0x2690f4(%rip),%rcx        # 66d260 <yytext>
  40416c:	85 c0                	test   %eax,%eax
  40416e:	7e 14                	jle    404184 <yylex+0x1444>
  404170:	31 d2                	xor    %edx,%edx
  404172:	80 7c 01 ff 0a       	cmpb   $0xa,-0x1(%rcx,%rax,1)
  404177:	48 8b 05 6a 75 26 00 	mov    0x26756a(%rip),%rax        # 66b6e8 <yy_current_buffer>
  40417e:	0f 94 c2             	sete   %dl
  404181:	89 50 28             	mov    %edx,0x28(%rax)
  404184:	8b 05 f6 70 26 00    	mov    0x2670f6(%rip),%eax        # 66b280 <CurrentFile>
  40418a:	48 8b 15 27 75 26 00 	mov    0x267527(%rip),%rdx        # 66b6b8 <line_start>
  404191:	66 89 05 fe 90 26 00 	mov    %ax,0x2690fe(%rip)        # 66d296 <yylval+0x6>
  404198:	8b 05 2e e8 23 00    	mov    0x23e82e(%rip),%eax        # 6429cc <Line>
  40419e:	48 39 ca             	cmp    %rcx,%rdx
  4041a1:	89 05 e9 90 26 00    	mov    %eax,0x2690e9(%rip)        # 66d290 <yylval>
  4041a7:	8b 05 d7 70 26 00    	mov    0x2670d7(%rip),%eax        # 66b284 <CurrentIncludedp>
  4041ad:	89 05 e5 90 26 00    	mov    %eax,0x2690e5(%rip)        # 66d298 <yylval+0x8>
  4041b3:	0f 83 9e 2a 00 00    	jae    406c57 <yylex+0x3f17>
  4041b9:	31 c0                	xor    %eax,%eax
  4041bb:	eb 10                	jmp    4041cd <yylex+0x148d>
  4041bd:	83 c0 01             	add    $0x1,%eax
  4041c0:	48 83 c2 01          	add    $0x1,%rdx
  4041c4:	48 39 ca             	cmp    %rcx,%rdx
  4041c7:	0f 84 8c 2a 00 00    	je     406c59 <yylex+0x3f19>
  4041cd:	80 3a 09             	cmpb   $0x9,(%rdx)
  4041d0:	75 eb                	jne    4041bd <yylex+0x147d>
  4041d2:	8d 70 07             	lea    0x7(%rax),%esi
  4041d5:	85 c0                	test   %eax,%eax
  4041d7:	0f 48 c6             	cmovs  %esi,%eax
  4041da:	c1 f8 03             	sar    $0x3,%eax
  4041dd:	8d 04 c5 08 00 00 00 	lea    0x8(,%rax,8),%eax
  4041e4:	eb da                	jmp    4041c0 <yylex+0x1480>
  4041e6:	48 63 05 7b 90 26 00 	movslq 0x26907b(%rip),%rax        # 66d268 <yyleng>
  4041ed:	48 8b 0d 6c 90 26 00 	mov    0x26906c(%rip),%rcx        # 66d260 <yytext>
  4041f4:	85 c0                	test   %eax,%eax
  4041f6:	7e 14                	jle    40420c <yylex+0x14cc>
  4041f8:	31 d2                	xor    %edx,%edx
  4041fa:	80 7c 01 ff 0a       	cmpb   $0xa,-0x1(%rcx,%rax,1)
  4041ff:	48 8b 05 e2 74 26 00 	mov    0x2674e2(%rip),%rax        # 66b6e8 <yy_current_buffer>
  404206:	0f 94 c2             	sete   %dl
  404209:	89 50 28             	mov    %edx,0x28(%rax)
  40420c:	8b 05 6e 70 26 00    	mov    0x26706e(%rip),%eax        # 66b280 <CurrentFile>
  404212:	48 8b 15 9f 74 26 00 	mov    0x26749f(%rip),%rdx        # 66b6b8 <line_start>
  404219:	66 89 05 76 90 26 00 	mov    %ax,0x269076(%rip)        # 66d296 <yylval+0x6>
  404220:	8b 05 a6 e7 23 00    	mov    0x23e7a6(%rip),%eax        # 6429cc <Line>
  404226:	48 39 ca             	cmp    %rcx,%rdx
  404229:	89 05 61 90 26 00    	mov    %eax,0x269061(%rip)        # 66d290 <yylval>
  40422f:	8b 05 4f 70 26 00    	mov    0x26704f(%rip),%eax        # 66b284 <CurrentIncludedp>
  404235:	89 05 5d 90 26 00    	mov    %eax,0x26905d(%rip)        # 66d298 <yylval+0x8>
  40423b:	0f 83 6e 2a 00 00    	jae    406caf <yylex+0x3f6f>
  404241:	31 c0                	xor    %eax,%eax
  404243:	eb 10                	jmp    404255 <yylex+0x1515>
  404245:	83 c0 01             	add    $0x1,%eax
  404248:	48 83 c2 01          	add    $0x1,%rdx
  40424c:	48 39 ca             	cmp    %rcx,%rdx
  40424f:	0f 84 5c 2a 00 00    	je     406cb1 <yylex+0x3f71>
  404255:	80 3a 09             	cmpb   $0x9,(%rdx)
  404258:	75 eb                	jne    404245 <yylex+0x1505>
  40425a:	8d 70 07             	lea    0x7(%rax),%esi
  40425d:	85 c0                	test   %eax,%eax
  40425f:	0f 48 c6             	cmovs  %esi,%eax
  404262:	c1 f8 03             	sar    $0x3,%eax
  404265:	8d 04 c5 08 00 00 00 	lea    0x8(,%rax,8),%eax
  40426c:	eb da                	jmp    404248 <yylex+0x1508>
  40426e:	48 63 05 f3 8f 26 00 	movslq 0x268ff3(%rip),%rax        # 66d268 <yyleng>
  404275:	48 8b 0d e4 8f 26 00 	mov    0x268fe4(%rip),%rcx        # 66d260 <yytext>
  40427c:	85 c0                	test   %eax,%eax
  40427e:	7e 14                	jle    404294 <yylex+0x1554>
  404280:	31 d2                	xor    %edx,%edx
  404282:	80 7c 01 ff 0a       	cmpb   $0xa,-0x1(%rcx,%rax,1)
  404287:	48 8b 05 5a 74 26 00 	mov    0x26745a(%rip),%rax        # 66b6e8 <yy_current_buffer>
  40428e:	0f 94 c2             	sete   %dl
  404291:	89 50 28             	mov    %edx,0x28(%rax)
  404294:	8b 05 e6 6f 26 00    	mov    0x266fe6(%rip),%eax        # 66b280 <CurrentFile>
  40429a:	48 8b 15 17 74 26 00 	mov    0x267417(%rip),%rdx        # 66b6b8 <line_start>
  4042a1:	66 89 05 ee 8f 26 00 	mov    %ax,0x268fee(%rip)        # 66d296 <yylval+0x6>
  4042a8:	8b 05 1e e7 23 00    	mov    0x23e71e(%rip),%eax        # 6429cc <Line>
  4042ae:	48 39 ca             	cmp    %rcx,%rdx
  4042b1:	89 05 d9 8f 26 00    	mov    %eax,0x268fd9(%rip)        # 66d290 <yylval>
  4042b7:	8b 05 c7 6f 26 00    	mov    0x266fc7(%rip),%eax        # 66b284 <CurrentIncludedp>
  4042bd:	89 05 d5 8f 26 00    	mov    %eax,0x268fd5(%rip)        # 66d298 <yylval+0x8>
  4042c3:	0f 83 b9 29 00 00    	jae    406c82 <yylex+0x3f42>
  4042c9:	31 c0                	xor    %eax,%eax
  4042cb:	eb 10                	jmp    4042dd <yylex+0x159d>
  4042cd:	83 c0 01             	add    $0x1,%eax
  4042d0:	48 83 c2 01          	add    $0x1,%rdx
  4042d4:	48 39 ca             	cmp    %rcx,%rdx
  4042d7:	0f 84 a7 29 00 00    	je     406c84 <yylex+0x3f44>
  4042dd:	80 3a 09             	cmpb   $0x9,(%rdx)
  4042e0:	75 eb                	jne    4042cd <yylex+0x158d>
  4042e2:	8d 70 07             	lea    0x7(%rax),%esi
  4042e5:	85 c0                	test   %eax,%eax
  4042e7:	0f 48 c6             	cmovs  %esi,%eax
  4042ea:	c1 f8 03             	sar    $0x3,%eax
  4042ed:	8d 04 c5 08 00 00 00 	lea    0x8(,%rax,8),%eax
  4042f4:	eb da                	jmp    4042d0 <yylex+0x1590>
  4042f6:	48 63 05 6b 8f 26 00 	movslq 0x268f6b(%rip),%rax        # 66d268 <yyleng>
  4042fd:	48 8b 3d 5c 8f 26 00 	mov    0x268f5c(%rip),%rdi        # 66d260 <yytext>
  404304:	85 c0                	test   %eax,%eax
  404306:	7e 14                	jle    40431c <yylex+0x15dc>
  404308:	31 d2                	xor    %edx,%edx
  40430a:	80 7c 07 ff 0a       	cmpb   $0xa,-0x1(%rdi,%rax,1)
  40430f:	48 8b 05 d2 73 26 00 	mov    0x2673d2(%rip),%rax        # 66b6e8 <yy_current_buffer>
  404316:	0f 94 c2             	sete   %dl
  404319:	89 50 28             	mov    %edx,0x28(%rax)
  40431c:	8b 05 5e 6f 26 00    	mov    0x266f5e(%rip),%eax        # 66b280 <CurrentFile>
  404322:	48 8b 15 8f 73 26 00 	mov    0x26738f(%rip),%rdx        # 66b6b8 <line_start>
  404329:	66 89 05 66 8f 26 00 	mov    %ax,0x268f66(%rip)        # 66d296 <yylval+0x6>
  404330:	8b 05 96 e6 23 00    	mov    0x23e696(%rip),%eax        # 6429cc <Line>
  404336:	48 39 fa             	cmp    %rdi,%rdx
  404339:	89 05 51 8f 26 00    	mov    %eax,0x268f51(%rip)        # 66d290 <yylval>
  40433f:	8b 05 3f 6f 26 00    	mov    0x266f3f(%rip),%eax        # 66b284 <CurrentIncludedp>
  404345:	89 05 4d 8f 26 00    	mov    %eax,0x268f4d(%rip)        # 66d298 <yylval+0x8>
  40434b:	0f 83 70 25 00 00    	jae    4068c1 <yylex+0x3b81>
  404351:	31 c0                	xor    %eax,%eax
  404353:	eb 10                	jmp    404365 <yylex+0x1625>
  404355:	83 c0 01             	add    $0x1,%eax
  404358:	48 83 c2 01          	add    $0x1,%rdx
  40435c:	48 39 fa             	cmp    %rdi,%rdx
  40435f:	0f 84 5e 25 00 00    	je     4068c3 <yylex+0x3b83>
  404365:	80 3a 09             	cmpb   $0x9,(%rdx)
  404368:	75 eb                	jne    404355 <yylex+0x1615>
  40436a:	8d 48 07             	lea    0x7(%rax),%ecx
  40436d:	85 c0                	test   %eax,%eax
  40436f:	0f 48 c1             	cmovs  %ecx,%eax
  404372:	c1 f8 03             	sar    $0x3,%eax
  404375:	8d 04 c5 08 00 00 00 	lea    0x8(,%rax,8),%eax
  40437c:	eb da                	jmp    404358 <yylex+0x1618>
  40437e:	48 63 05 e3 8e 26 00 	movslq 0x268ee3(%rip),%rax        # 66d268 <yyleng>
  404385:	48 8b 0d d4 8e 26 00 	mov    0x268ed4(%rip),%rcx        # 66d260 <yytext>
  40438c:	85 c0                	test   %eax,%eax
  40438e:	7e 14                	jle    4043a4 <yylex+0x1664>
  404390:	31 d2                	xor    %edx,%edx
  404392:	80 7c 01 ff 0a       	cmpb   $0xa,-0x1(%rcx,%rax,1)
  404397:	48 8b 05 4a 73 26 00 	mov    0x26734a(%rip),%rax        # 66b6e8 <yy_current_buffer>
  40439e:	0f 94 c2             	sete   %dl
  4043a1:	89 50 28             	mov    %edx,0x28(%rax)
  4043a4:	8b 05 d6 6e 26 00    	mov    0x266ed6(%rip),%eax        # 66b280 <CurrentFile>
  4043aa:	48 8b 15 07 73 26 00 	mov    0x267307(%rip),%rdx        # 66b6b8 <line_start>
  4043b1:	66 89 05 de 8e 26 00 	mov    %ax,0x268ede(%rip)        # 66d296 <yylval+0x6>
  4043b8:	8b 05 0e e6 23 00    	mov    0x23e60e(%rip),%eax        # 6429cc <Line>
  4043be:	48 39 ca             	cmp    %rcx,%rdx
  4043c1:	89 05 c9 8e 26 00    	mov    %eax,0x268ec9(%rip)        # 66d290 <yylval>
  4043c7:	8b 05 b7 6e 26 00    	mov    0x266eb7(%rip),%eax        # 66b284 <CurrentIncludedp>
  4043cd:	89 05 c5 8e 26 00    	mov    %eax,0x268ec5(%rip)        # 66d298 <yylval+0x8>
  4043d3:	0f 83 51 28 00 00    	jae    406c2a <yylex+0x3eea>
  4043d9:	31 c0                	xor    %eax,%eax
  4043db:	eb 10                	jmp    4043ed <yylex+0x16ad>
  4043dd:	83 c0 01             	add    $0x1,%eax
  4043e0:	48 83 c2 01          	add    $0x1,%rdx
  4043e4:	48 39 ca             	cmp    %rcx,%rdx
  4043e7:	0f 84 3f 28 00 00    	je     406c2c <yylex+0x3eec>
  4043ed:	80 3a 09             	cmpb   $0x9,(%rdx)
  4043f0:	75 eb                	jne    4043dd <yylex+0x169d>
  4043f2:	8d 70 07             	lea    0x7(%rax),%esi
  4043f5:	85 c0                	test   %eax,%eax
  4043f7:	0f 48 c6             	cmovs  %esi,%eax
  4043fa:	c1 f8 03             	sar    $0x3,%eax
  4043fd:	8d 04 c5 08 00 00 00 	lea    0x8(,%rax,8),%eax
  404404:	eb da                	jmp    4043e0 <yylex+0x16a0>
  404406:	48 63 05 5b 8e 26 00 	movslq 0x268e5b(%rip),%rax        # 66d268 <yyleng>
  40440d:	48 8b 3d 4c 8e 26 00 	mov    0x268e4c(%rip),%rdi        # 66d260 <yytext>
  404414:	85 c0                	test   %eax,%eax
  404416:	7e 14                	jle    40442c <yylex+0x16ec>
  404418:	31 d2                	xor    %edx,%edx
  40441a:	80 7c 07 ff 0a       	cmpb   $0xa,-0x1(%rdi,%rax,1)
  40441f:	48 8b 05 c2 72 26 00 	mov    0x2672c2(%rip),%rax        # 66b6e8 <yy_current_buffer>
  404426:	0f 94 c2             	sete   %dl
  404429:	89 50 28             	mov    %edx,0x28(%rax)
  40442c:	8b 05 4e 6e 26 00    	mov    0x266e4e(%rip),%eax        # 66b280 <CurrentFile>
  404432:	48 8b 15 7f 72 26 00 	mov    0x26727f(%rip),%rdx        # 66b6b8 <line_start>
  404439:	66 89 05 56 8e 26 00 	mov    %ax,0x268e56(%rip)        # 66d296 <yylval+0x6>
  404440:	8b 05 86 e5 23 00    	mov    0x23e586(%rip),%eax        # 6429cc <Line>
  404446:	48 39 fa             	cmp    %rdi,%rdx
  404449:	89 05 41 8e 26 00    	mov    %eax,0x268e41(%rip)        # 66d290 <yylval>
  40444f:	8b 05 2f 6e 26 00    	mov    0x266e2f(%rip),%eax        # 66b284 <CurrentIncludedp>
  404455:	89 05 3d 8e 26 00    	mov    %eax,0x268e3d(%rip)        # 66d298 <yylval+0x8>
  40445b:	0f 83 60 24 00 00    	jae    4068c1 <yylex+0x3b81>
  404461:	31 c0                	xor    %eax,%eax
  404463:	eb 10                	jmp    404475 <yylex+0x1735>
  404465:	83 c0 01             	add    $0x1,%eax
  404468:	48 83 c2 01          	add    $0x1,%rdx
  40446c:	48 39 fa             	cmp    %rdi,%rdx
  40446f:	0f 84 4e 24 00 00    	je     4068c3 <yylex+0x3b83>
  404475:	80 3a 09             	cmpb   $0x9,(%rdx)
  404478:	75 eb                	jne    404465 <yylex+0x1725>
  40447a:	8d 48 07             	lea    0x7(%rax),%ecx
  40447d:	85 c0                	test   %eax,%eax
  40447f:	0f 48 c1             	cmovs  %ecx,%eax
  404482:	c1 f8 03             	sar    $0x3,%eax
  404485:	8d 04 c5 08 00 00 00 	lea    0x8(,%rax,8),%eax
  40448c:	eb da                	jmp    404468 <yylex+0x1728>
  40448e:	48 63 05 d3 8d 26 00 	movslq 0x268dd3(%rip),%rax        # 66d268 <yyleng>
  404495:	48 8b 0d c4 8d 26 00 	mov    0x268dc4(%rip),%rcx        # 66d260 <yytext>
  40449c:	85 c0                	test   %eax,%eax
  40449e:	7e 14                	jle    4044b4 <yylex+0x1774>
  4044a0:	31 d2                	xor    %edx,%edx
  4044a2:	80 7c 01 ff 0a       	cmpb   $0xa,-0x1(%rcx,%rax,1)
  4044a7:	48 8b 05 3a 72 26 00 	mov    0x26723a(%rip),%rax        # 66b6e8 <yy_current_buffer>
  4044ae:	0f 94 c2             	sete   %dl
  4044b1:	89 50 28             	mov    %edx,0x28(%rax)
  4044b4:	8b 05 c6 6d 26 00    	mov    0x266dc6(%rip),%eax        # 66b280 <CurrentFile>
  4044ba:	48 8b 15 f7 71 26 00 	mov    0x2671f7(%rip),%rdx        # 66b6b8 <line_start>
  4044c1:	66 89 05 ce 8d 26 00 	mov    %ax,0x268dce(%rip)        # 66d296 <yylval+0x6>
  4044c8:	8b 05 fe e4 23 00    	mov    0x23e4fe(%rip),%eax        # 6429cc <Line>
  4044ce:	48 39 ca             	cmp    %rcx,%rdx
  4044d1:	89 05 b9 8d 26 00    	mov    %eax,0x268db9(%rip)        # 66d290 <yylval>
  4044d7:	8b 05 a7 6d 26 00    	mov    0x266da7(%rip),%eax        # 66b284 <CurrentIncludedp>
  4044dd:	89 05 b5 8d 26 00    	mov    %eax,0x268db5(%rip)        # 66d298 <yylval+0x8>
  4044e3:	0f 83 14 27 00 00    	jae    406bfd <yylex+0x3ebd>
  4044e9:	31 c0                	xor    %eax,%eax
  4044eb:	eb 10                	jmp    4044fd <yylex+0x17bd>
  4044ed:	83 c0 01             	add    $0x1,%eax
  4044f0:	48 83 c2 01          	add    $0x1,%rdx
  4044f4:	48 39 ca             	cmp    %rcx,%rdx
  4044f7:	0f 84 02 27 00 00    	je     406bff <yylex+0x3ebf>
  4044fd:	80 3a 09             	cmpb   $0x9,(%rdx)
  404500:	75 eb                	jne    4044ed <yylex+0x17ad>
  404502:	8d 70 07             	lea    0x7(%rax),%esi
  404505:	85 c0                	test   %eax,%eax
  404507:	0f 48 c6             	cmovs  %esi,%eax
  40450a:	c1 f8 03             	sar    $0x3,%eax
  40450d:	8d 04 c5 08 00 00 00 	lea    0x8(,%rax,8),%eax
  404514:	eb da                	jmp    4044f0 <yylex+0x17b0>
  404516:	48 63 05 4b 8d 26 00 	movslq 0x268d4b(%rip),%rax        # 66d268 <yyleng>
  40451d:	48 8b 3d 3c 8d 26 00 	mov    0x268d3c(%rip),%rdi        # 66d260 <yytext>
  404524:	85 c0                	test   %eax,%eax
  404526:	7e 14                	jle    40453c <yylex+0x17fc>
  404528:	31 d2                	xor    %edx,%edx
  40452a:	80 7c 07 ff 0a       	cmpb   $0xa,-0x1(%rdi,%rax,1)
  40452f:	48 8b 05 b2 71 26 00 	mov    0x2671b2(%rip),%rax        # 66b6e8 <yy_current_buffer>
  404536:	0f 94 c2             	sete   %dl
  404539:	89 50 28             	mov    %edx,0x28(%rax)
  40453c:	8b 05 3e 6d 26 00    	mov    0x266d3e(%rip),%eax        # 66b280 <CurrentFile>
  404542:	48 8b 15 6f 71 26 00 	mov    0x26716f(%rip),%rdx        # 66b6b8 <line_start>
  404549:	66 89 05 46 8d 26 00 	mov    %ax,0x268d46(%rip)        # 66d296 <yylval+0x6>
  404550:	8b 05 76 e4 23 00    	mov    0x23e476(%rip),%eax        # 6429cc <Line>
  404556:	48 39 fa             	cmp    %rdi,%rdx
  404559:	89 05 31 8d 26 00    	mov    %eax,0x268d31(%rip)        # 66d290 <yylval>
  40455f:	8b 05 1f 6d 26 00    	mov    0x266d1f(%rip),%eax        # 66b284 <CurrentIncludedp>
  404565:	89 05 2d 8d 26 00    	mov    %eax,0x268d2d(%rip)        # 66d298 <yylval+0x8>
  40456b:	0f 83 50 23 00 00    	jae    4068c1 <yylex+0x3b81>
  404571:	31 c0                	xor    %eax,%eax
  404573:	eb 10                	jmp    404585 <yylex+0x1845>
  404575:	83 c0 01             	add    $0x1,%eax
  404578:	48 83 c2 01          	add    $0x1,%rdx
  40457c:	48 39 fa             	cmp    %rdi,%rdx
  40457f:	0f 84 3e 23 00 00    	je     4068c3 <yylex+0x3b83>
  404585:	80 3a 09             	cmpb   $0x9,(%rdx)
  404588:	75 eb                	jne    404575 <yylex+0x1835>
  40458a:	8d 48 07             	lea    0x7(%rax),%ecx
  40458d:	85 c0                	test   %eax,%eax
  40458f:	0f 48 c1             	cmovs  %ecx,%eax
  404592:	c1 f8 03             	sar    $0x3,%eax
  404595:	8d 04 c5 08 00 00 00 	lea    0x8(,%rax,8),%eax
  40459c:	eb da                	jmp    404578 <yylex+0x1838>
  40459e:	48 63 05 c3 8c 26 00 	movslq 0x268cc3(%rip),%rax        # 66d268 <yyleng>
  4045a5:	48 8b 3d b4 8c 26 00 	mov    0x268cb4(%rip),%rdi        # 66d260 <yytext>
  4045ac:	85 c0                	test   %eax,%eax
  4045ae:	7e 14                	jle    4045c4 <yylex+0x1884>
  4045b0:	31 d2                	xor    %edx,%edx
  4045b2:	80 7c 07 ff 0a       	cmpb   $0xa,-0x1(%rdi,%rax,1)
  4045b7:	48 8b 05 2a 71 26 00 	mov    0x26712a(%rip),%rax        # 66b6e8 <yy_current_buffer>
  4045be:	0f 94 c2             	sete   %dl
  4045c1:	89 50 28             	mov    %edx,0x28(%rax)
  4045c4:	8b 05 b6 6c 26 00    	mov    0x266cb6(%rip),%eax        # 66b280 <CurrentFile>
  4045ca:	48 8b 15 e7 70 26 00 	mov    0x2670e7(%rip),%rdx        # 66b6b8 <line_start>
  4045d1:	66 89 05 be 8c 26 00 	mov    %ax,0x268cbe(%rip)        # 66d296 <yylval+0x6>
  4045d8:	8b 05 ee e3 23 00    	mov    0x23e3ee(%rip),%eax        # 6429cc <Line>
  4045de:	48 39 fa             	cmp    %rdi,%rdx
  4045e1:	89 05 a9 8c 26 00    	mov    %eax,0x268ca9(%rip)        # 66d290 <yylval>
  4045e7:	8b 05 97 6c 26 00    	mov    0x266c97(%rip),%eax        # 66b284 <CurrentIncludedp>
  4045ed:	89 05 a5 8c 26 00    	mov    %eax,0x268ca5(%rip)        # 66d298 <yylval+0x8>
  4045f3:	0f 83 c8 22 00 00    	jae    4068c1 <yylex+0x3b81>
  4045f9:	31 c0                	xor    %eax,%eax
  4045fb:	eb 10                	jmp    40460d <yylex+0x18cd>
  4045fd:	83 c0 01             	add    $0x1,%eax
  404600:	48 83 c2 01          	add    $0x1,%rdx
  404604:	48 39 fa             	cmp    %rdi,%rdx
  404607:	0f 84 b6 22 00 00    	je     4068c3 <yylex+0x3b83>
  40460d:	80 3a 09             	cmpb   $0x9,(%rdx)
  404610:	75 eb                	jne    4045fd <yylex+0x18bd>
  404612:	8d 48 07             	lea    0x7(%rax),%ecx
  404615:	85 c0                	test   %eax,%eax
  404617:	0f 48 c1             	cmovs  %ecx,%eax
  40461a:	c1 f8 03             	sar    $0x3,%eax
  40461d:	8d 04 c5 08 00 00 00 	lea    0x8(,%rax,8),%eax
  404624:	eb da                	jmp    404600 <yylex+0x18c0>
  404626:	48 63 05 3b 8c 26 00 	movslq 0x268c3b(%rip),%rax        # 66d268 <yyleng>
  40462d:	48 8b 3d 2c 8c 26 00 	mov    0x268c2c(%rip),%rdi        # 66d260 <yytext>
  404634:	85 c0                	test   %eax,%eax
  404636:	7e 14                	jle    40464c <yylex+0x190c>
  404638:	31 d2                	xor    %edx,%edx
  40463a:	80 7c 07 ff 0a       	cmpb   $0xa,-0x1(%rdi,%rax,1)
  40463f:	48 8b 05 a2 70 26 00 	mov    0x2670a2(%rip),%rax        # 66b6e8 <yy_current_buffer>
  404646:	0f 94 c2             	sete   %dl
  404649:	89 50 28             	mov    %edx,0x28(%rax)
  40464c:	8b 05 2e 6c 26 00    	mov    0x266c2e(%rip),%eax        # 66b280 <CurrentFile>
  404652:	48 8b 15 5f 70 26 00 	mov    0x26705f(%rip),%rdx        # 66b6b8 <line_start>
  404659:	66 89 05 36 8c 26 00 	mov    %ax,0x268c36(%rip)        # 66d296 <yylval+0x6>
  404660:	8b 05 66 e3 23 00    	mov    0x23e366(%rip),%eax        # 6429cc <Line>
  404666:	48 39 fa             	cmp    %rdi,%rdx
  404669:	89 05 21 8c 26 00    	mov    %eax,0x268c21(%rip)        # 66d290 <yylval>
  40466f:	8b 05 0f 6c 26 00    	mov    0x266c0f(%rip),%eax        # 66b284 <CurrentIncludedp>
  404675:	89 05 1d 8c 26 00    	mov    %eax,0x268c1d(%rip)        # 66d298 <yylval+0x8>
  40467b:	0f 83 40 22 00 00    	jae    4068c1 <yylex+0x3b81>
  404681:	31 c0                	xor    %eax,%eax
  404683:	eb 10                	jmp    404695 <yylex+0x1955>
  404685:	83 c0 01             	add    $0x1,%eax
  404688:	48 83 c2 01          	add    $0x1,%rdx
  40468c:	48 39 fa             	cmp    %rdi,%rdx
  40468f:	0f 84 2e 22 00 00    	je     4068c3 <yylex+0x3b83>
  404695:	80 3a 09             	cmpb   $0x9,(%rdx)
  404698:	75 eb                	jne    404685 <yylex+0x1945>
  40469a:	8d 48 07             	lea    0x7(%rax),%ecx
  40469d:	85 c0                	test   %eax,%eax
  40469f:	0f 48 c1             	cmovs  %ecx,%eax
  4046a2:	c1 f8 03             	sar    $0x3,%eax
  4046a5:	8d 04 c5 08 00 00 00 	lea    0x8(,%rax,8),%eax
  4046ac:	eb da                	jmp    404688 <yylex+0x1948>
  4046ae:	48 63 05 b3 8b 26 00 	movslq 0x268bb3(%rip),%rax        # 66d268 <yyleng>
  4046b5:	48 8b 0d a4 8b 26 00 	mov    0x268ba4(%rip),%rcx        # 66d260 <yytext>
  4046bc:	85 c0                	test   %eax,%eax
  4046be:	7e 14                	jle    4046d4 <yylex+0x1994>
  4046c0:	31 d2                	xor    %edx,%edx
  4046c2:	80 7c 01 ff 0a       	cmpb   $0xa,-0x1(%rcx,%rax,1)
  4046c7:	48 8b 05 1a 70 26 00 	mov    0x26701a(%rip),%rax        # 66b6e8 <yy_current_buffer>
  4046ce:	0f 94 c2             	sete   %dl
  4046d1:	89 50 28             	mov    %edx,0x28(%rax)
  4046d4:	8b 05 a6 6b 26 00    	mov    0x266ba6(%rip),%eax        # 66b280 <CurrentFile>
  4046da:	48 8b 15 d7 6f 26 00 	mov    0x266fd7(%rip),%rdx        # 66b6b8 <line_start>
  4046e1:	66 89 05 ae 8b 26 00 	mov    %ax,0x268bae(%rip)        # 66d296 <yylval+0x6>
  4046e8:	8b 05 de e2 23 00    	mov    0x23e2de(%rip),%eax        # 6429cc <Line>
  4046ee:	48 39 ca             	cmp    %rcx,%rdx
  4046f1:	89 05 99 8b 26 00    	mov    %eax,0x268b99(%rip)        # 66d290 <yylval>
  4046f7:	8b 05 87 6b 26 00    	mov    0x266b87(%rip),%eax        # 66b284 <CurrentIncludedp>
  4046fd:	89 05 95 8b 26 00    	mov    %eax,0x268b95(%rip)        # 66d298 <yylval+0x8>
  404703:	0f 83 c7 24 00 00    	jae    406bd0 <yylex+0x3e90>
  404709:	31 c0                	xor    %eax,%eax
  40470b:	eb 10                	jmp    40471d <yylex+0x19dd>
  40470d:	83 c0 01             	add    $0x1,%eax
  404710:	48 83 c2 01          	add    $0x1,%rdx
  404714:	48 39 ca             	cmp    %rcx,%rdx
  404717:	0f 84 b5 24 00 00    	je     406bd2 <yylex+0x3e92>
  40471d:	80 3a 09             	cmpb   $0x9,(%rdx)
  404720:	75 eb                	jne    40470d <yylex+0x19cd>
  404722:	8d 70 07             	lea    0x7(%rax),%esi
  404725:	85 c0                	test   %eax,%eax
  404727:	0f 48 c6             	cmovs  %esi,%eax
  40472a:	c1 f8 03             	sar    $0x3,%eax
  40472d:	8d 04 c5 08 00 00 00 	lea    0x8(,%rax,8),%eax
  404734:	eb da                	jmp    404710 <yylex+0x19d0>
  404736:	48 63 05 2b 8b 26 00 	movslq 0x268b2b(%rip),%rax        # 66d268 <yyleng>
  40473d:	48 8b 0d 1c 8b 26 00 	mov    0x268b1c(%rip),%rcx        # 66d260 <yytext>
  404744:	85 c0                	test   %eax,%eax
  404746:	7e 14                	jle    40475c <yylex+0x1a1c>
  404748:	31 d2                	xor    %edx,%edx
  40474a:	80 7c 01 ff 0a       	cmpb   $0xa,-0x1(%rcx,%rax,1)
  40474f:	48 8b 05 92 6f 26 00 	mov    0x266f92(%rip),%rax        # 66b6e8 <yy_current_buffer>
  404756:	0f 94 c2             	sete   %dl
  404759:	89 50 28             	mov    %edx,0x28(%rax)
  40475c:	8b 05 1e 6b 26 00    	mov    0x266b1e(%rip),%eax        # 66b280 <CurrentFile>
  404762:	48 8b 15 4f 6f 26 00 	mov    0x266f4f(%rip),%rdx        # 66b6b8 <line_start>
  404769:	66 89 05 26 8b 26 00 	mov    %ax,0x268b26(%rip)        # 66d296 <yylval+0x6>
  404770:	8b 05 56 e2 23 00    	mov    0x23e256(%rip),%eax        # 6429cc <Line>
  404776:	48 39 ca             	cmp    %rcx,%rdx
  404779:	89 05 11 8b 26 00    	mov    %eax,0x268b11(%rip)        # 66d290 <yylval>
  40477f:	8b 05 ff 6a 26 00    	mov    0x266aff(%rip),%eax        # 66b284 <CurrentIncludedp>
  404785:	89 05 0d 8b 26 00    	mov    %eax,0x268b0d(%rip)        # 66d298 <yylval+0x8>
  40478b:	0f 83 12 24 00 00    	jae    406ba3 <yylex+0x3e63>
  404791:	31 c0                	xor    %eax,%eax
  404793:	eb 10                	jmp    4047a5 <yylex+0x1a65>
  404795:	83 c0 01             	add    $0x1,%eax
  404798:	48 83 c2 01          	add    $0x1,%rdx
  40479c:	48 39 ca             	cmp    %rcx,%rdx
  40479f:	0f 84 00 24 00 00    	je     406ba5 <yylex+0x3e65>
  4047a5:	80 3a 09             	cmpb   $0x9,(%rdx)
  4047a8:	75 eb                	jne    404795 <yylex+0x1a55>
  4047aa:	8d 70 07             	lea    0x7(%rax),%esi
  4047ad:	85 c0                	test   %eax,%eax
  4047af:	0f 48 c6             	cmovs  %esi,%eax
  4047b2:	c1 f8 03             	sar    $0x3,%eax
  4047b5:	8d 04 c5 08 00 00 00 	lea    0x8(,%rax,8),%eax
  4047bc:	eb da                	jmp    404798 <yylex+0x1a58>
  4047be:	48 63 05 a3 8a 26 00 	movslq 0x268aa3(%rip),%rax        # 66d268 <yyleng>
  4047c5:	48 8b 0d 94 8a 26 00 	mov    0x268a94(%rip),%rcx        # 66d260 <yytext>
  4047cc:	85 c0                	test   %eax,%eax
  4047ce:	7e 14                	jle    4047e4 <yylex+0x1aa4>
  4047d0:	31 d2                	xor    %edx,%edx
  4047d2:	80 7c 01 ff 0a       	cmpb   $0xa,-0x1(%rcx,%rax,1)
  4047d7:	48 8b 05 0a 6f 26 00 	mov    0x266f0a(%rip),%rax        # 66b6e8 <yy_current_buffer>
  4047de:	0f 94 c2             	sete   %dl
  4047e1:	89 50 28             	mov    %edx,0x28(%rax)
  4047e4:	8b 05 96 6a 26 00    	mov    0x266a96(%rip),%eax        # 66b280 <CurrentFile>
  4047ea:	48 8b 15 c7 6e 26 00 	mov    0x266ec7(%rip),%rdx        # 66b6b8 <line_start>
  4047f1:	66 89 05 9e 8a 26 00 	mov    %ax,0x268a9e(%rip)        # 66d296 <yylval+0x6>
  4047f8:	8b 05 ce e1 23 00    	mov    0x23e1ce(%rip),%eax        # 6429cc <Line>
  4047fe:	48 39 ca             	cmp    %rcx,%rdx
  404801:	89 05 89 8a 26 00    	mov    %eax,0x268a89(%rip)        # 66d290 <yylval>
  404807:	8b 05 77 6a 26 00    	mov    0x266a77(%rip),%eax        # 66b284 <CurrentIncludedp>
  40480d:	89 05 85 8a 26 00    	mov    %eax,0x268a85(%rip)        # 66d298 <yylval+0x8>
  404813:	0f 83 5d 23 00 00    	jae    406b76 <yylex+0x3e36>
  404819:	31 c0                	xor    %eax,%eax
  40481b:	eb 10                	jmp    40482d <yylex+0x1aed>
  40481d:	83 c0 01             	add    $0x1,%eax
  404820:	48 83 c2 01          	add    $0x1,%rdx
  404824:	48 39 ca             	cmp    %rcx,%rdx
  404827:	0f 84 4b 23 00 00    	je     406b78 <yylex+0x3e38>
  40482d:	80 3a 09             	cmpb   $0x9,(%rdx)
  404830:	75 eb                	jne    40481d <yylex+0x1add>
  404832:	8d 70 07             	lea    0x7(%rax),%esi
  404835:	85 c0                	test   %eax,%eax
  404837:	0f 48 c6             	cmovs  %esi,%eax
  40483a:	c1 f8 03             	sar    $0x3,%eax
  40483d:	8d 04 c5 08 00 00 00 	lea    0x8(,%rax,8),%eax
  404844:	eb da                	jmp    404820 <yylex+0x1ae0>
  404846:	48 63 05 1b 8a 26 00 	movslq 0x268a1b(%rip),%rax        # 66d268 <yyleng>
  40484d:	48 8b 3d 0c 8a 26 00 	mov    0x268a0c(%rip),%rdi        # 66d260 <yytext>
  404854:	85 c0                	test   %eax,%eax
  404856:	7e 14                	jle    40486c <yylex+0x1b2c>
  404858:	31 d2                	xor    %edx,%edx
  40485a:	80 7c 07 ff 0a       	cmpb   $0xa,-0x1(%rdi,%rax,1)
  40485f:	48 8b 05 82 6e 26 00 	mov    0x266e82(%rip),%rax        # 66b6e8 <yy_current_buffer>
  404866:	0f 94 c2             	sete   %dl
  404869:	89 50 28             	mov    %edx,0x28(%rax)
  40486c:	8b 05 0e 6a 26 00    	mov    0x266a0e(%rip),%eax        # 66b280 <CurrentFile>
  404872:	48 8b 15 3f 6e 26 00 	mov    0x266e3f(%rip),%rdx        # 66b6b8 <line_start>
  404879:	66 89 05 16 8a 26 00 	mov    %ax,0x268a16(%rip)        # 66d296 <yylval+0x6>
  404880:	8b 05 46 e1 23 00    	mov    0x23e146(%rip),%eax        # 6429cc <Line>
  404886:	48 39 fa             	cmp    %rdi,%rdx
  404889:	89 05 01 8a 26 00    	mov    %eax,0x268a01(%rip)        # 66d290 <yylval>
  40488f:	8b 05 ef 69 26 00    	mov    0x2669ef(%rip),%eax        # 66b284 <CurrentIncludedp>
  404895:	89 05 fd 89 26 00    	mov    %eax,0x2689fd(%rip)        # 66d298 <yylval+0x8>
  40489b:	0f 83 20 20 00 00    	jae    4068c1 <yylex+0x3b81>
  4048a1:	31 c0                	xor    %eax,%eax
  4048a3:	eb 10                	jmp    4048b5 <yylex+0x1b75>
  4048a5:	83 c0 01             	add    $0x1,%eax
  4048a8:	48 83 c2 01          	add    $0x1,%rdx
  4048ac:	48 39 fa             	cmp    %rdi,%rdx
  4048af:	0f 84 0e 20 00 00    	je     4068c3 <yylex+0x3b83>
  4048b5:	80 3a 09             	cmpb   $0x9,(%rdx)
  4048b8:	75 eb                	jne    4048a5 <yylex+0x1b65>
  4048ba:	8d 48 07             	lea    0x7(%rax),%ecx
  4048bd:	85 c0                	test   %eax,%eax
  4048bf:	0f 48 c1             	cmovs  %ecx,%eax
  4048c2:	c1 f8 03             	sar    $0x3,%eax
  4048c5:	8d 04 c5 08 00 00 00 	lea    0x8(,%rax,8),%eax
  4048cc:	eb da                	jmp    4048a8 <yylex+0x1b68>
  4048ce:	48 63 05 93 89 26 00 	movslq 0x268993(%rip),%rax        # 66d268 <yyleng>
  4048d5:	48 8b 0d 84 89 26 00 	mov    0x268984(%rip),%rcx        # 66d260 <yytext>
  4048dc:	85 c0                	test   %eax,%eax
  4048de:	7e 14                	jle    4048f4 <yylex+0x1bb4>
  4048e0:	31 d2                	xor    %edx,%edx
  4048e2:	80 7c 01 ff 0a       	cmpb   $0xa,-0x1(%rcx,%rax,1)
  4048e7:	48 8b 05 fa 6d 26 00 	mov    0x266dfa(%rip),%rax        # 66b6e8 <yy_current_buffer>
  4048ee:	0f 94 c2             	sete   %dl
  4048f1:	89 50 28             	mov    %edx,0x28(%rax)
  4048f4:	8b 05 86 69 26 00    	mov    0x266986(%rip),%eax        # 66b280 <CurrentFile>
  4048fa:	48 8b 15 b7 6d 26 00 	mov    0x266db7(%rip),%rdx        # 66b6b8 <line_start>
  404901:	66 89 05 8e 89 26 00 	mov    %ax,0x26898e(%rip)        # 66d296 <yylval+0x6>
  404908:	8b 05 be e0 23 00    	mov    0x23e0be(%rip),%eax        # 6429cc <Line>
  40490e:	48 39 ca             	cmp    %rcx,%rdx
  404911:	89 05 79 89 26 00    	mov    %eax,0x268979(%rip)        # 66d290 <yylval>
  404917:	8b 05 67 69 26 00    	mov    0x266967(%rip),%eax        # 66b284 <CurrentIncludedp>
  40491d:	89 05 75 89 26 00    	mov    %eax,0x268975(%rip)        # 66d298 <yylval+0x8>
  404923:	0f 83 a7 2f 00 00    	jae    4078d0 <yylex+0x4b90>
  404929:	31 c0                	xor    %eax,%eax
  40492b:	eb 10                	jmp    40493d <yylex+0x1bfd>
  40492d:	83 c0 01             	add    $0x1,%eax
  404930:	48 83 c2 01          	add    $0x1,%rdx
  404934:	48 39 ca             	cmp    %rcx,%rdx
  404937:	0f 84 95 2f 00 00    	je     4078d2 <yylex+0x4b92>
  40493d:	80 3a 09             	cmpb   $0x9,(%rdx)
  404940:	75 eb                	jne    40492d <yylex+0x1bed>
  404942:	8d 70 07             	lea    0x7(%rax),%esi
  404945:	85 c0                	test   %eax,%eax
  404947:	0f 48 c6             	cmovs  %esi,%eax
  40494a:	c1 f8 03             	sar    $0x3,%eax
  40494d:	8d 04 c5 08 00 00 00 	lea    0x8(,%rax,8),%eax
  404954:	eb da                	jmp    404930 <yylex+0x1bf0>
  404956:	48 63 05 0b 89 26 00 	movslq 0x26890b(%rip),%rax        # 66d268 <yyleng>
  40495d:	48 8b 0d fc 88 26 00 	mov    0x2688fc(%rip),%rcx        # 66d260 <yytext>
  404964:	85 c0                	test   %eax,%eax
  404966:	7e 14                	jle    40497c <yylex+0x1c3c>
  404968:	31 d2                	xor    %edx,%edx
  40496a:	80 7c 01 ff 0a       	cmpb   $0xa,-0x1(%rcx,%rax,1)
  40496f:	48 8b 05 72 6d 26 00 	mov    0x266d72(%rip),%rax        # 66b6e8 <yy_current_buffer>
  404976:	0f 94 c2             	sete   %dl
  404979:	89 50 28             	mov    %edx,0x28(%rax)
  40497c:	8b 05 fe 68 26 00    	mov    0x2668fe(%rip),%eax        # 66b280 <CurrentFile>
  404982:	48 8b 15 2f 6d 26 00 	mov    0x266d2f(%rip),%rdx        # 66b6b8 <line_start>
  404989:	66 89 05 06 89 26 00 	mov    %ax,0x268906(%rip)        # 66d296 <yylval+0x6>
  404990:	8b 05 36 e0 23 00    	mov    0x23e036(%rip),%eax        # 6429cc <Line>
  404996:	48 39 ca             	cmp    %rcx,%rdx
  404999:	89 05 f1 88 26 00    	mov    %eax,0x2688f1(%rip)        # 66d290 <yylval>
  40499f:	8b 05 df 68 26 00    	mov    0x2668df(%rip),%eax        # 66b284 <CurrentIncludedp>
  4049a5:	89 05 ed 88 26 00    	mov    %eax,0x2688ed(%rip)        # 66d298 <yylval+0x8>
  4049ab:	0f 83 4a 2f 00 00    	jae    4078fb <yylex+0x4bbb>
  4049b1:	31 c0                	xor    %eax,%eax
  4049b3:	eb 10                	jmp    4049c5 <yylex+0x1c85>
  4049b5:	83 c0 01             	add    $0x1,%eax
  4049b8:	48 83 c2 01          	add    $0x1,%rdx
  4049bc:	48 39 ca             	cmp    %rcx,%rdx
  4049bf:	0f 84 38 2f 00 00    	je     4078fd <yylex+0x4bbd>
  4049c5:	80 3a 09             	cmpb   $0x9,(%rdx)
  4049c8:	75 eb                	jne    4049b5 <yylex+0x1c75>
  4049ca:	8d 70 07             	lea    0x7(%rax),%esi
  4049cd:	85 c0                	test   %eax,%eax
  4049cf:	0f 48 c6             	cmovs  %esi,%eax
  4049d2:	c1 f8 03             	sar    $0x3,%eax
  4049d5:	8d 04 c5 08 00 00 00 	lea    0x8(,%rax,8),%eax
  4049dc:	eb da                	jmp    4049b8 <yylex+0x1c78>
  4049de:	48 63 05 83 88 26 00 	movslq 0x268883(%rip),%rax        # 66d268 <yyleng>
  4049e5:	48 8b 3d 74 88 26 00 	mov    0x268874(%rip),%rdi        # 66d260 <yytext>
  4049ec:	85 c0                	test   %eax,%eax
  4049ee:	7e 14                	jle    404a04 <yylex+0x1cc4>
  4049f0:	31 d2                	xor    %edx,%edx
  4049f2:	80 7c 07 ff 0a       	cmpb   $0xa,-0x1(%rdi,%rax,1)
  4049f7:	48 8b 05 ea 6c 26 00 	mov    0x266cea(%rip),%rax        # 66b6e8 <yy_current_buffer>
  4049fe:	0f 94 c2             	sete   %dl
  404a01:	89 50 28             	mov    %edx,0x28(%rax)
  404a04:	8b 05 76 68 26 00    	mov    0x266876(%rip),%eax        # 66b280 <CurrentFile>
  404a0a:	48 8b 15 a7 6c 26 00 	mov    0x266ca7(%rip),%rdx        # 66b6b8 <line_start>
  404a11:	66 89 05 7e 88 26 00 	mov    %ax,0x26887e(%rip)        # 66d296 <yylval+0x6>
  404a18:	8b 05 ae df 23 00    	mov    0x23dfae(%rip),%eax        # 6429cc <Line>
  404a1e:	48 39 fa             	cmp    %rdi,%rdx
  404a21:	89 05 69 88 26 00    	mov    %eax,0x268869(%rip)        # 66d290 <yylval>
  404a27:	8b 05 57 68 26 00    	mov    0x266857(%rip),%eax        # 66b284 <CurrentIncludedp>
  404a2d:	89 05 65 88 26 00    	mov    %eax,0x268865(%rip)        # 66d298 <yylval+0x8>
  404a33:	0f 83 88 1e 00 00    	jae    4068c1 <yylex+0x3b81>
  404a39:	31 c0                	xor    %eax,%eax
  404a3b:	eb 10                	jmp    404a4d <yylex+0x1d0d>
  404a3d:	83 c0 01             	add    $0x1,%eax
  404a40:	48 83 c2 01          	add    $0x1,%rdx
  404a44:	48 39 fa             	cmp    %rdi,%rdx
  404a47:	0f 84 76 1e 00 00    	je     4068c3 <yylex+0x3b83>
  404a4d:	80 3a 09             	cmpb   $0x9,(%rdx)
  404a50:	75 eb                	jne    404a3d <yylex+0x1cfd>
  404a52:	8d 48 07             	lea    0x7(%rax),%ecx
  404a55:	85 c0                	test   %eax,%eax
  404a57:	0f 48 c1             	cmovs  %ecx,%eax
  404a5a:	c1 f8 03             	sar    $0x3,%eax
  404a5d:	8d 04 c5 08 00 00 00 	lea    0x8(,%rax,8),%eax
  404a64:	eb da                	jmp    404a40 <yylex+0x1d00>
  404a66:	48 63 05 fb 87 26 00 	movslq 0x2687fb(%rip),%rax        # 66d268 <yyleng>
  404a6d:	48 8b 1d ec 87 26 00 	mov    0x2687ec(%rip),%rbx        # 66d260 <yytext>
  404a74:	85 c0                	test   %eax,%eax
  404a76:	7e 14                	jle    404a8c <yylex+0x1d4c>
  404a78:	31 d2                	xor    %edx,%edx
  404a7a:	80 7c 03 ff 0a       	cmpb   $0xa,-0x1(%rbx,%rax,1)
  404a7f:	48 8b 05 62 6c 26 00 	mov    0x266c62(%rip),%rax        # 66b6e8 <yy_current_buffer>
  404a86:	0f 94 c2             	sete   %dl
  404a89:	89 50 28             	mov    %edx,0x28(%rax)
  404a8c:	48 89 df             	mov    %rbx,%rdi
  404a8f:	e8 4c c4 ff ff       	callq  400ee0 <strlen@plt>
  404a94:	48 89 df             	mov    %rbx,%rdi
  404a97:	48 89 c5             	mov    %rax,%rbp
  404a9a:	e8 51 92 01 00       	callq  41dcf0 <UniqueString>
  404a9f:	48 89 c3             	mov    %rax,%rbx
  404aa2:	48 8b 05 b7 87 26 00 	mov    0x2687b7(%rip),%rax        # 66d260 <yytext>
  404aa9:	48 63 ed             	movslq %ebp,%rbp
  404aac:	48 8b 0d 05 6c 26 00 	mov    0x266c05(%rip),%rcx        # 66b6b8 <line_start>
  404ab3:	c6 44 28 ff 00       	movb   $0x0,-0x1(%rax,%rbp,1)
  404ab8:	8b 05 c2 67 26 00    	mov    0x2667c2(%rip),%eax        # 66b280 <CurrentFile>
  404abe:	48 8b 35 9b 87 26 00 	mov    0x26879b(%rip),%rsi        # 66d260 <yytext>
  404ac5:	66 89 05 ca 87 26 00 	mov    %ax,0x2687ca(%rip)        # 66d296 <yylval+0x6>
  404acc:	8b 05 fa de 23 00    	mov    0x23defa(%rip),%eax        # 6429cc <Line>
  404ad2:	48 39 f1             	cmp    %rsi,%rcx
  404ad5:	89 05 b5 87 26 00    	mov    %eax,0x2687b5(%rip)        # 66d290 <yylval>
  404adb:	8b 05 a3 67 26 00    	mov    0x2667a3(%rip),%eax        # 66b284 <CurrentIncludedp>
  404ae1:	89 05 b1 87 26 00    	mov    %eax,0x2687b1(%rip)        # 66d298 <yylval+0x8>
  404ae7:	0f 83 88 1e 00 00    	jae    406975 <yylex+0x3c35>
  404aed:	31 d2                	xor    %edx,%edx
  404aef:	eb 10                	jmp    404b01 <yylex+0x1dc1>
  404af1:	83 c2 01             	add    $0x1,%edx
  404af4:	48 83 c1 01          	add    $0x1,%rcx
  404af8:	48 39 f1             	cmp    %rsi,%rcx
  404afb:	0f 84 76 1e 00 00    	je     406977 <yylex+0x3c37>
  404b01:	80 39 09             	cmpb   $0x9,(%rcx)
  404b04:	75 eb                	jne    404af1 <yylex+0x1db1>
  404b06:	8d 42 07             	lea    0x7(%rdx),%eax
  404b09:	85 d2                	test   %edx,%edx
  404b0b:	0f 48 d0             	cmovs  %eax,%edx
  404b0e:	c1 fa 03             	sar    $0x3,%edx
  404b11:	8d 14 d5 08 00 00 00 	lea    0x8(,%rdx,8),%edx
  404b18:	eb da                	jmp    404af4 <yylex+0x1db4>
  404b1a:	48 63 05 47 87 26 00 	movslq 0x268747(%rip),%rax        # 66d268 <yyleng>
  404b21:	48 8b 1d 38 87 26 00 	mov    0x268738(%rip),%rbx        # 66d260 <yytext>
  404b28:	85 c0                	test   %eax,%eax
  404b2a:	7e 14                	jle    404b40 <yylex+0x1e00>
  404b2c:	31 d2                	xor    %edx,%edx
  404b2e:	80 7c 03 ff 0a       	cmpb   $0xa,-0x1(%rbx,%rax,1)
  404b33:	48 8b 05 ae 6b 26 00 	mov    0x266bae(%rip),%rax        # 66b6e8 <yy_current_buffer>
  404b3a:	0f 94 c2             	sete   %dl
  404b3d:	89 50 28             	mov    %edx,0x28(%rax)
  404b40:	48 89 df             	mov    %rbx,%rdi
  404b43:	e8 98 c3 ff ff       	callq  400ee0 <strlen@plt>
  404b48:	48 89 df             	mov    %rbx,%rdi
  404b4b:	48 89 c5             	mov    %rax,%rbp
  404b4e:	e8 9d 91 01 00       	callq  41dcf0 <UniqueString>
  404b53:	48 89 c3             	mov    %rax,%rbx
  404b56:	48 8b 05 03 87 26 00 	mov    0x268703(%rip),%rax        # 66d260 <yytext>
  404b5d:	48 63 ed             	movslq %ebp,%rbp
  404b60:	48 8b 0d 51 6b 26 00 	mov    0x266b51(%rip),%rcx        # 66b6b8 <line_start>
  404b67:	c6 44 28 ff 00       	movb   $0x0,-0x1(%rax,%rbp,1)
  404b6c:	8b 05 0e 67 26 00    	mov    0x26670e(%rip),%eax        # 66b280 <CurrentFile>
  404b72:	48 8b 35 e7 86 26 00 	mov    0x2686e7(%rip),%rsi        # 66d260 <yytext>
  404b79:	66 89 05 16 87 26 00 	mov    %ax,0x268716(%rip)        # 66d296 <yylval+0x6>
  404b80:	8b 05 46 de 23 00    	mov    0x23de46(%rip),%eax        # 6429cc <Line>
  404b86:	48 39 f1             	cmp    %rsi,%rcx
  404b89:	89 05 01 87 26 00    	mov    %eax,0x268701(%rip)        # 66d290 <yylval>
  404b8f:	8b 05 ef 66 26 00    	mov    0x2666ef(%rip),%eax        # 66b284 <CurrentIncludedp>
  404b95:	89 05 fd 86 26 00    	mov    %eax,0x2686fd(%rip)        # 66d298 <yylval+0x8>
  404b9b:	0f 83 d4 1d 00 00    	jae    406975 <yylex+0x3c35>
  404ba1:	31 d2                	xor    %edx,%edx
  404ba3:	eb 10                	jmp    404bb5 <yylex+0x1e75>
  404ba5:	83 c2 01             	add    $0x1,%edx
  404ba8:	48 83 c1 01          	add    $0x1,%rcx
  404bac:	48 39 f1             	cmp    %rsi,%rcx
  404baf:	0f 84 c2 1d 00 00    	je     406977 <yylex+0x3c37>
  404bb5:	80 39 09             	cmpb   $0x9,(%rcx)
  404bb8:	75 eb                	jne    404ba5 <yylex+0x1e65>
  404bba:	8d 42 07             	lea    0x7(%rdx),%eax
  404bbd:	85 d2                	test   %edx,%edx
  404bbf:	0f 48 d0             	cmovs  %eax,%edx
  404bc2:	c1 fa 03             	sar    $0x3,%edx
  404bc5:	8d 14 d5 08 00 00 00 	lea    0x8(,%rdx,8),%edx
  404bcc:	eb da                	jmp    404ba8 <yylex+0x1e68>
  404bce:	48 63 05 93 86 26 00 	movslq 0x268693(%rip),%rax        # 66d268 <yyleng>
  404bd5:	48 8b 1d 84 86 26 00 	mov    0x268684(%rip),%rbx        # 66d260 <yytext>
  404bdc:	85 c0                	test   %eax,%eax
  404bde:	7e 14                	jle    404bf4 <yylex+0x1eb4>
  404be0:	31 d2                	xor    %edx,%edx
  404be2:	80 7c 03 ff 0a       	cmpb   $0xa,-0x1(%rbx,%rax,1)
  404be7:	48 8b 05 fa 6a 26 00 	mov    0x266afa(%rip),%rax        # 66b6e8 <yy_current_buffer>
  404bee:	0f 94 c2             	sete   %dl
  404bf1:	89 50 28             	mov    %edx,0x28(%rax)
  404bf4:	80 3b 4c             	cmpb   $0x4c,(%rbx)
  404bf7:	75 06                	jne    404bff <yylex+0x1ebf>
  404bf9:	80 7b 01 27          	cmpb   $0x27,0x1(%rbx)
  404bfd:	74 14                	je     404c13 <yylex+0x1ed3>
  404bff:	ba 78 6c 42 00       	mov    $0x426c78,%edx
  404c04:	be a1 02 00 00       	mov    $0x2a1,%esi
  404c09:	bf 91 6b 42 00       	mov    $0x426b91,%edi
  404c0e:	e8 2d ed 01 00       	callq  423940 <Fail>
  404c13:	48 8d 7b 01          	lea    0x1(%rbx),%rdi
  404c17:	bb 30 01 00 00       	mov    $0x130,%ebx
  404c1c:	e8 6f d3 ff ff       	callq  401f90 <char_constant>
  404c21:	48 89 05 68 86 26 00 	mov    %rax,0x268668(%rip)        # 66d290 <yylval>
  404c28:	8b 05 82 74 26 00    	mov    0x267482(%rip),%eax        # 66c0b0 <DebugLex>
  404c2e:	85 c0                	test   %eax,%eax
  404c30:	0f 85 63 2e 00 00    	jne    407a99 <yylex+0x4d59>
  404c36:	89 d8                	mov    %ebx,%eax
  404c38:	48 8b 5c 24 38       	mov    0x38(%rsp),%rbx
  404c3d:	64 48 33 1c 25 28 00 	xor    %fs:0x28,%rbx
  404c44:	00 00 
  404c46:	0f 85 48 2e 00 00    	jne    407a94 <yylex+0x4d54>
  404c4c:	48 83 c4 48          	add    $0x48,%rsp
  404c50:	5b                   	pop    %rbx
  404c51:	5d                   	pop    %rbp
  404c52:	41 5c                	pop    %r12
  404c54:	41 5d                	pop    %r13
  404c56:	41 5e                	pop    %r14
  404c58:	41 5f                	pop    %r15
  404c5a:	c3                   	retq   
  404c5b:	48 63 05 06 86 26 00 	movslq 0x268606(%rip),%rax        # 66d268 <yyleng>
  404c62:	85 c0                	test   %eax,%eax
  404c64:	7e 1c                	jle    404c82 <yylex+0x1f42>
  404c66:	48 8b 15 f3 85 26 00 	mov    0x2685f3(%rip),%rdx        # 66d260 <yytext>
  404c6d:	80 7c 02 ff 0a       	cmpb   $0xa,-0x1(%rdx,%rax,1)
  404c72:	48 8b 05 6f 6a 26 00 	mov    0x266a6f(%rip),%rax        # 66b6e8 <yy_current_buffer>
  404c79:	0f 94 c2             	sete   %dl
  404c7c:	0f b6 d2             	movzbl %dl,%edx
  404c7f:	89 50 28             	mov    %edx,0x28(%rax)
  404c82:	bf 74 6c 42 00       	mov    $0x426c74,%edi
  404c87:	e8 04 d3 ff ff       	callq  401f90 <char_constant>
  404c8c:	48 8b 35 cd 85 26 00 	mov    0x2685cd(%rip),%rsi        # 66d260 <yytext>
  404c93:	48 89 05 f6 85 26 00 	mov    %rax,0x2685f6(%rip)        # 66d290 <yylval>
  404c9a:	bf 30 6f 42 00       	mov    $0x426f30,%edi
  404c9f:	31 c0                	xor    %eax,%eax
  404ca1:	e8 1a ed 01 00       	callq  4239c0 <SyntaxError>
  404ca6:	8b 05 04 74 26 00    	mov    0x267404(%rip),%eax        # 66c0b0 <DebugLex>
  404cac:	85 c0                	test   %eax,%eax
  404cae:	75 5f                	jne    404d0f <yylex+0x1fcf>
  404cb0:	bb 31 01 00 00       	mov    $0x131,%ebx
  404cb5:	e9 7c ff ff ff       	jmpq   404c36 <yylex+0x1ef6>
  404cba:	48 63 05 a7 85 26 00 	movslq 0x2685a7(%rip),%rax        # 66d268 <yyleng>
  404cc1:	85 c0                	test   %eax,%eax
  404cc3:	7e 1c                	jle    404ce1 <yylex+0x1fa1>
  404cc5:	48 8b 15 94 85 26 00 	mov    0x268594(%rip),%rdx        # 66d260 <yytext>
  404ccc:	80 7c 02 ff 0a       	cmpb   $0xa,-0x1(%rdx,%rax,1)
  404cd1:	48 8b 05 10 6a 26 00 	mov    0x266a10(%rip),%rax        # 66b6e8 <yy_current_buffer>
  404cd8:	0f 94 c2             	sete   %dl
  404cdb:	0f b6 d2             	movzbl %dl,%edx
  404cde:	89 50 28             	mov    %edx,0x28(%rax)
  404ce1:	31 c0                	xor    %eax,%eax
  404ce3:	bf 68 6c 42 00       	mov    $0x426c68,%edi
  404ce8:	e8 d3 ec 01 00       	callq  4239c0 <SyntaxError>
  404ced:	bf 74 6c 42 00       	mov    $0x426c74,%edi
  404cf2:	e8 99 d2 ff ff       	callq  401f90 <char_constant>
  404cf7:	48 89 05 92 85 26 00 	mov    %rax,0x268592(%rip)        # 66d290 <yylval>
  404cfe:	8b 05 ac 73 26 00    	mov    0x2673ac(%rip),%eax        # 66c0b0 <DebugLex>
  404d04:	83 05 c1 dc 23 00 01 	addl   $0x1,0x23dcc1(%rip)        # 6429cc <Line>
  404d0b:	85 c0                	test   %eax,%eax
  404d0d:	74 a1                	je     404cb0 <yylex+0x1f70>
  404d0f:	bf 31 01 00 00       	mov    $0x131,%edi
  404d14:	bb 31 01 00 00       	mov    $0x131,%ebx
  404d19:	e8 41 c4 ff ff       	callq  40115f <print_token.part.0>
  404d1e:	e9 13 ff ff ff       	jmpq   404c36 <yylex+0x1ef6>
  404d23:	0f 1f 44 00 00       	nopl   0x0(%rax,%rax,1)
  404d28:	48 63 05 39 85 26 00 	movslq 0x268539(%rip),%rax        # 66d268 <yyleng>
  404d2f:	48 8b 3d 2a 85 26 00 	mov    0x26852a(%rip),%rdi        # 66d260 <yytext>
  404d36:	85 c0                	test   %eax,%eax
  404d38:	7e 14                	jle    404d4e <yylex+0x200e>
  404d3a:	31 d2                	xor    %edx,%edx
  404d3c:	80 7c 07 ff 0a       	cmpb   $0xa,-0x1(%rdi,%rax,1)
  404d41:	48 8b 05 a0 69 26 00 	mov    0x2669a0(%rip),%rax        # 66b6e8 <yy_current_buffer>
  404d48:	0f 94 c2             	sete   %dl
  404d4b:	89 50 28             	mov    %edx,0x28(%rax)
  404d4e:	e8 3d d2 ff ff       	callq  401f90 <char_constant>
  404d53:	8b 15 57 73 26 00    	mov    0x267357(%rip),%edx        # 66c0b0 <DebugLex>
  404d59:	48 89 05 30 85 26 00 	mov    %rax,0x268530(%rip)        # 66d290 <yylval>
  404d60:	85 d2                	test   %edx,%edx
  404d62:	0f 84 48 ff ff ff    	je     404cb0 <yylex+0x1f70>
  404d68:	eb a5                	jmp    404d0f <yylex+0x1fcf>
  404d6a:	66 0f 1f 44 00 00    	nopw   0x0(%rax,%rax,1)
  404d70:	48 63 05 f1 84 26 00 	movslq 0x2684f1(%rip),%rax        # 66d268 <yyleng>
  404d77:	85 c0                	test   %eax,%eax
  404d79:	7e 1c                	jle    404d97 <yylex+0x2057>
  404d7b:	48 8b 15 de 84 26 00 	mov    0x2684de(%rip),%rdx        # 66d260 <yytext>
  404d82:	80 7c 02 ff 0a       	cmpb   $0xa,-0x1(%rdx,%rax,1)
  404d87:	48 8b 05 5a 69 26 00 	mov    0x26695a(%rip),%rax        # 66b6e8 <yy_current_buffer>
  404d8e:	0f 94 c2             	sete   %dl
  404d91:	0f b6 d2             	movzbl %dl,%edx
  404d94:	89 50 28             	mov    %edx,0x28(%rax)
  404d97:	0f b6 05 46 69 26 00 	movzbl 0x266946(%rip),%eax        # 66b6e4 <yy_hold_char>
  404d9e:	45 31 ed             	xor    %r13d,%r13d
  404da1:	88 45 00             	mov    %al,0x0(%rbp)
  404da4:	48 63 05 bd 84 26 00 	movslq 0x2684bd(%rip),%rax        # 66d268 <yyleng>
  404dab:	31 ed                	xor    %ebp,%ebp
  404dad:	4c 89 25 ac 84 26 00 	mov    %r12,0x2684ac(%rip)        # 66d260 <yytext>
  404db4:	49 8d 44 04 ff       	lea    -0x1(%r12,%rax,1),%rax
  404db9:	48 89 c2             	mov    %rax,%rdx
  404dbc:	48 89 05 15 69 26 00 	mov    %rax,0x266915(%rip)        # 66b6d8 <yy_c_buf_p>
  404dc3:	4c 29 e2             	sub    %r12,%rdx
  404dc6:	89 15 9c 84 26 00    	mov    %edx,0x26849c(%rip)        # 66d268 <yyleng>
  404dcc:	0f b6 10             	movzbl (%rax),%edx
  404dcf:	c6 00 00             	movb   $0x0,(%rax)
  404dd2:	48 8b 1d 87 84 26 00 	mov    0x268487(%rip),%rbx        # 66d260 <yytext>
  404dd9:	48 89 df             	mov    %rbx,%rdi
  404ddc:	88 15 02 69 26 00    	mov    %dl,0x266902(%rip)        # 66b6e4 <yy_hold_char>
  404de2:	e8 f9 c0 ff ff       	callq  400ee0 <strlen@plt>
  404de7:	4c 8d 64 03 ff       	lea    -0x1(%rbx,%rax,1),%r12
  404dec:	e8 9f c2 ff ff       	callq  401090 <__ctype_b_loc@plt>
  404df1:	4c 8b 38             	mov    (%rax),%r15
  404df4:	eb 0e                	jmp    404e04 <yylex+0x20c4>
  404df6:	3c 4c                	cmp    $0x4c,%al
  404df8:	b8 01 00 00 00       	mov    $0x1,%eax
  404dfd:	0f 44 e8             	cmove  %eax,%ebp
  404e00:	49 83 ec 01          	sub    $0x1,%r12
  404e04:	4d 0f be 34 24       	movsbq (%r12),%r14
  404e09:	43 f6 44 77 01 08    	testb  $0x8,0x1(%r15,%r14,2)
  404e0f:	0f 85 eb 29 00 00    	jne    407800 <yylex+0x4ac0>
  404e15:	e8 06 c0 ff ff       	callq  400e20 <__ctype_toupper_loc@plt>
  404e1a:	48 8b 00             	mov    (%rax),%rax
  404e1d:	42 8b 04 b0          	mov    (%rax,%r14,4),%eax
  404e21:	3c 46                	cmp    $0x46,%al
  404e23:	75 d1                	jne    404df6 <yylex+0x20b6>
  404e25:	41 bd 01 00 00 00    	mov    $0x1,%r13d
  404e2b:	eb d3                	jmp    404e00 <yylex+0x20c0>
  404e2d:	48 63 05 34 84 26 00 	movslq 0x268434(%rip),%rax        # 66d268 <yyleng>
  404e34:	48 8b 3d 25 84 26 00 	mov    0x268425(%rip),%rdi        # 66d260 <yytext>
  404e3b:	85 c0                	test   %eax,%eax
  404e3d:	7e 14                	jle    404e53 <yylex+0x2113>
  404e3f:	31 d2                	xor    %edx,%edx
  404e41:	80 7c 07 ff 0a       	cmpb   $0xa,-0x1(%rdi,%rax,1)
  404e46:	48 8b 05 9b 68 26 00 	mov    0x26689b(%rip),%rax        # 66b6e8 <yy_current_buffer>
  404e4d:	0f 94 c2             	sete   %dl
  404e50:	89 50 28             	mov    %edx,0x28(%rax)
  404e53:	31 f6                	xor    %esi,%esi
  404e55:	bb 2f 01 00 00       	mov    $0x12f,%ebx
  404e5a:	e8 61 d2 ff ff       	callq  4020c0 <int_constant.isra.1>
  404e5f:	8b 35 4b 72 26 00    	mov    0x26724b(%rip),%esi        # 66c0b0 <DebugLex>
  404e65:	48 89 05 24 84 26 00 	mov    %rax,0x268424(%rip)        # 66d290 <yylval>
  404e6c:	85 f6                	test   %esi,%esi
  404e6e:	0f 84 c2 fd ff ff    	je     404c36 <yylex+0x1ef6>
  404e74:	bf 2f 01 00 00       	mov    $0x12f,%edi
  404e79:	e8 e1 c2 ff ff       	callq  40115f <print_token.part.0>
  404e7e:	e9 b3 fd ff ff       	jmpq   404c36 <yylex+0x1ef6>
  404e83:	0f 1f 44 00 00       	nopl   0x0(%rax,%rax,1)
  404e88:	48 63 05 d9 83 26 00 	movslq 0x2683d9(%rip),%rax        # 66d268 <yyleng>
  404e8f:	48 8b 3d ca 83 26 00 	mov    0x2683ca(%rip),%rdi        # 66d260 <yytext>
  404e96:	85 c0                	test   %eax,%eax
  404e98:	7e 14                	jle    404eae <yylex+0x216e>
  404e9a:	31 d2                	xor    %edx,%edx
  404e9c:	80 7c 07 ff 0a       	cmpb   $0xa,-0x1(%rdi,%rax,1)
  404ea1:	48 8b 05 40 68 26 00 	mov    0x266840(%rip),%rax        # 66b6e8 <yy_current_buffer>
  404ea8:	0f 94 c2             	sete   %dl
  404eab:	89 50 28             	mov    %edx,0x28(%rax)
  404eae:	31 f6                	xor    %esi,%esi
  404eb0:	bb 2e 01 00 00       	mov    $0x12e,%ebx
  404eb5:	e8 06 d2 ff ff       	callq  4020c0 <int_constant.isra.1>
  404eba:	8b 3d f0 71 26 00    	mov    0x2671f0(%rip),%edi        # 66c0b0 <DebugLex>
  404ec0:	48 89 05 c9 83 26 00 	mov    %rax,0x2683c9(%rip)        # 66d290 <yylval>
  404ec7:	85 ff                	test   %edi,%edi
  404ec9:	0f 84 67 fd ff ff    	je     404c36 <yylex+0x1ef6>
  404ecf:	bf 2e 01 00 00       	mov    $0x12e,%edi
  404ed4:	e8 86 c2 ff ff       	callq  40115f <print_token.part.0>
  404ed9:	e9 58 fd ff ff       	jmpq   404c36 <yylex+0x1ef6>
  404ede:	66 90                	xchg   %ax,%ax
  404ee0:	48 63 05 81 83 26 00 	movslq 0x268381(%rip),%rax        # 66d268 <yyleng>
  404ee7:	48 8b 3d 72 83 26 00 	mov    0x268372(%rip),%rdi        # 66d260 <yytext>
  404eee:	85 c0                	test   %eax,%eax
  404ef0:	7e 14                	jle    404f06 <yylex+0x21c6>
  404ef2:	31 d2                	xor    %edx,%edx
  404ef4:	80 7c 07 ff 0a       	cmpb   $0xa,-0x1(%rdi,%rax,1)
  404ef9:	48 8b 05 e8 67 26 00 	mov    0x2667e8(%rip),%rax        # 66b6e8 <yy_current_buffer>
  404f00:	0f 94 c2             	sete   %dl
  404f03:	89 50 28             	mov    %edx,0x28(%rax)
  404f06:	be 01 00 00 00       	mov    $0x1,%esi
  404f0b:	bb 2d 01 00 00       	mov    $0x12d,%ebx
  404f10:	e8 ab d1 ff ff       	callq  4020c0 <int_constant.isra.1>
  404f15:	44 8b 05 94 71 26 00 	mov    0x267194(%rip),%r8d        # 66c0b0 <DebugLex>
  404f1c:	48 89 05 6d 83 26 00 	mov    %rax,0x26836d(%rip)        # 66d290 <yylval>
  404f23:	45 85 c0             	test   %r8d,%r8d
  404f26:	0f 84 0a fd ff ff    	je     404c36 <yylex+0x1ef6>
  404f2c:	bf 2d 01 00 00       	mov    $0x12d,%edi
  404f31:	e8 29 c2 ff ff       	callq  40115f <print_token.part.0>
  404f36:	e9 fb fc ff ff       	jmpq   404c36 <yylex+0x1ef6>
  404f3b:	0f 1f 44 00 00       	nopl   0x0(%rax,%rax,1)
  404f40:	48 63 05 21 83 26 00 	movslq 0x268321(%rip),%rax        # 66d268 <yyleng>
  404f47:	48 8b 3d 12 83 26 00 	mov    0x268312(%rip),%rdi        # 66d260 <yytext>
  404f4e:	85 c0                	test   %eax,%eax
  404f50:	7e 14                	jle    404f66 <yylex+0x2226>
  404f52:	31 d2                	xor    %edx,%edx
  404f54:	80 7c 07 ff 0a       	cmpb   $0xa,-0x1(%rdi,%rax,1)
  404f59:	48 8b 05 88 67 26 00 	mov    0x266788(%rip),%rax        # 66b6e8 <yy_current_buffer>
  404f60:	0f 94 c2             	sete   %dl
  404f63:	89 50 28             	mov    %edx,0x28(%rax)
  404f66:	8b 05 14 63 26 00    	mov    0x266314(%rip),%eax        # 66b280 <CurrentFile>
  404f6c:	48 8b 15 45 67 26 00 	mov    0x266745(%rip),%rdx        # 66b6b8 <line_start>
  404f73:	66 89 05 1c 83 26 00 	mov    %ax,0x26831c(%rip)        # 66d296 <yylval+0x6>
  404f7a:	8b 05 4c da 23 00    	mov    0x23da4c(%rip),%eax        # 6429cc <Line>
  404f80:	48 39 fa             	cmp    %rdi,%rdx
  404f83:	89 05 07 83 26 00    	mov    %eax,0x268307(%rip)        # 66d290 <yylval>
  404f89:	8b 05 f5 62 26 00    	mov    0x2662f5(%rip),%eax        # 66b284 <CurrentIncludedp>
  404f8f:	89 05 03 83 26 00    	mov    %eax,0x268303(%rip)        # 66d298 <yylval+0x8>
  404f95:	0f 83 88 19 00 00    	jae    406923 <yylex+0x3be3>
  404f9b:	31 c0                	xor    %eax,%eax
  404f9d:	eb 10                	jmp    404faf <yylex+0x226f>
  404f9f:	83 c0 01             	add    $0x1,%eax
  404fa2:	48 83 c2 01          	add    $0x1,%rdx
  404fa6:	48 39 fa             	cmp    %rdi,%rdx
  404fa9:	0f 84 76 19 00 00    	je     406925 <yylex+0x3be5>
  404faf:	80 3a 09             	cmpb   $0x9,(%rdx)
  404fb2:	75 eb                	jne    404f9f <yylex+0x225f>
  404fb4:	8d 48 07             	lea    0x7(%rax),%ecx
  404fb7:	85 c0                	test   %eax,%eax
  404fb9:	0f 48 c1             	cmovs  %ecx,%eax
  404fbc:	c1 f8 03             	sar    $0x3,%eax
  404fbf:	8d 04 c5 08 00 00 00 	lea    0x8(,%rax,8),%eax
  404fc6:	eb da                	jmp    404fa2 <yylex+0x2262>
  404fc8:	48 63 05 99 82 26 00 	movslq 0x268299(%rip),%rax        # 66d268 <yyleng>
  404fcf:	48 8b 0d 8a 82 26 00 	mov    0x26828a(%rip),%rcx        # 66d260 <yytext>
  404fd6:	85 c0                	test   %eax,%eax
  404fd8:	7e 14                	jle    404fee <yylex+0x22ae>
  404fda:	31 d2                	xor    %edx,%edx
  404fdc:	80 7c 01 ff 0a       	cmpb   $0xa,-0x1(%rcx,%rax,1)
  404fe1:	48 8b 05 00 67 26 00 	mov    0x266700(%rip),%rax        # 66b6e8 <yy_current_buffer>
  404fe8:	0f 94 c2             	sete   %dl
  404feb:	89 50 28             	mov    %edx,0x28(%rax)
  404fee:	8b 05 8c 62 26 00    	mov    0x26628c(%rip),%eax        # 66b280 <CurrentFile>
  404ff4:	48 8b 15 bd 66 26 00 	mov    0x2666bd(%rip),%rdx        # 66b6b8 <line_start>
  404ffb:	66 89 05 94 82 26 00 	mov    %ax,0x268294(%rip)        # 66d296 <yylval+0x6>
  405002:	8b 05 c4 d9 23 00    	mov    0x23d9c4(%rip),%eax        # 6429cc <Line>
  405008:	48 39 ca             	cmp    %rcx,%rdx
  40500b:	89 05 7f 82 26 00    	mov    %eax,0x26827f(%rip)        # 66d290 <yylval>
  405011:	8b 05 6d 62 26 00    	mov    0x26626d(%rip),%eax        # 66b284 <CurrentIncludedp>
  405017:	89 05 7b 82 26 00    	mov    %eax,0x26827b(%rip)        # 66d298 <yylval+0x8>
  40501d:	0f 83 a7 27 00 00    	jae    4077ca <yylex+0x4a8a>
  405023:	31 c0                	xor    %eax,%eax
  405025:	eb 10                	jmp    405037 <yylex+0x22f7>
  405027:	83 c0 01             	add    $0x1,%eax
  40502a:	48 83 c2 01          	add    $0x1,%rdx
  40502e:	48 39 ca             	cmp    %rcx,%rdx
  405031:	0f 84 95 27 00 00    	je     4077cc <yylex+0x4a8c>
  405037:	80 3a 09             	cmpb   $0x9,(%rdx)
  40503a:	75 eb                	jne    405027 <yylex+0x22e7>
  40503c:	8d 70 07             	lea    0x7(%rax),%esi
  40503f:	85 c0                	test   %eax,%eax
  405041:	0f 48 c6             	cmovs  %esi,%eax
  405044:	c1 f8 03             	sar    $0x3,%eax
  405047:	8d 04 c5 08 00 00 00 	lea    0x8(,%rax,8),%eax
  40504e:	eb da                	jmp    40502a <yylex+0x22ea>
  405050:	48 63 05 11 82 26 00 	movslq 0x268211(%rip),%rax        # 66d268 <yyleng>
  405057:	48 8b 0d 02 82 26 00 	mov    0x268202(%rip),%rcx        # 66d260 <yytext>
